ARM GAS  C:\Users\shun2\AppData\Local\Temp\ccPfx1KS.s 			page 1


   1              		.syntax unified
   2              		.cpu cortex-m4
   3              		.eabi_attribute 27, 1
   4              		.eabi_attribute 28, 1
   5              		.fpu fpv4-sp-d16
   6              		.eabi_attribute 20, 1
   7              		.eabi_attribute 21, 1
   8              		.eabi_attribute 23, 3
   9              		.eabi_attribute 24, 1
  10              		.eabi_attribute 25, 1
  11              		.eabi_attribute 26, 1
  12              		.eabi_attribute 30, 1
  13              		.eabi_attribute 34, 1
  14              		.eabi_attribute 18, 4
  15              		.thumb
  16              		.syntax unified
  17              		.file	"gpio.c"
  18              		.text
  19              	.Ltext0:
  20              		.cfi_sections	.debug_frame
  21              		.section	.text.MX_GPIO_Init,"ax",%progbits
  22              		.align	2
  23              		.global	MX_GPIO_Init
  24              		.thumb
  25              		.thumb_func
  27              	MX_GPIO_Init:
  28              	.LFB124:
  29              		.file 1 "Src/gpio.c"
   1:Src/gpio.c    **** /**
   2:Src/gpio.c    ****   ******************************************************************************
   3:Src/gpio.c    ****   * File Name          : gpio.c
   4:Src/gpio.c    ****   * Description        : This file provides code for the configuration
   5:Src/gpio.c    ****   *                      of all used GPIO pins.
   6:Src/gpio.c    ****   ******************************************************************************
   7:Src/gpio.c    ****   ** This notice applies to any and all portions of this file
   8:Src/gpio.c    ****   * that are not between comment pairs USER CODE BEGIN and
   9:Src/gpio.c    ****   * USER CODE END. Other portions of this file, whether 
  10:Src/gpio.c    ****   * inserted by the user or by software development tools
  11:Src/gpio.c    ****   * are owned by their respective copyright owners.
  12:Src/gpio.c    ****   *
  13:Src/gpio.c    ****   * COPYRIGHT(c) 2019 STMicroelectronics
  14:Src/gpio.c    ****   *
  15:Src/gpio.c    ****   * Redistribution and use in source and binary forms, with or without modification,
  16:Src/gpio.c    ****   * are permitted provided that the following conditions are met:
  17:Src/gpio.c    ****   *   1. Redistributions of source code must retain the above copyright notice,
  18:Src/gpio.c    ****   *      this list of conditions and the following disclaimer.
  19:Src/gpio.c    ****   *   2. Redistributions in binary form must reproduce the above copyright notice,
  20:Src/gpio.c    ****   *      this list of conditions and the following disclaimer in the documentation
  21:Src/gpio.c    ****   *      and/or other materials provided with the distribution.
  22:Src/gpio.c    ****   *   3. Neither the name of STMicroelectronics nor the names of its contributors
  23:Src/gpio.c    ****   *      may be used to endorse or promote products derived from this software
  24:Src/gpio.c    ****   *      without specific prior written permission.
  25:Src/gpio.c    ****   *
  26:Src/gpio.c    ****   * THIS SOFTWARE IS PROVIDED BY THE COPYRIGHT HOLDERS AND CONTRIBUTORS "AS IS"
  27:Src/gpio.c    ****   * AND ANY EXPRESS OR IMPLIED WARRANTIES, INCLUDING, BUT NOT LIMITED TO, THE
  28:Src/gpio.c    ****   * IMPLIED WARRANTIES OF MERCHANTABILITY AND FITNESS FOR A PARTICULAR PURPOSE ARE
  29:Src/gpio.c    ****   * DISCLAIMED. IN NO EVENT SHALL THE COPYRIGHT HOLDER OR CONTRIBUTORS BE LIABLE
ARM GAS  C:\Users\shun2\AppData\Local\Temp\ccPfx1KS.s 			page 2


  30:Src/gpio.c    ****   * FOR ANY DIRECT, INDIRECT, INCIDENTAL, SPECIAL, EXEMPLARY, OR CONSEQUENTIAL
  31:Src/gpio.c    ****   * DAMAGES (INCLUDING, BUT NOT LIMITED TO, PROCUREMENT OF SUBSTITUTE GOODS OR
  32:Src/gpio.c    ****   * SERVICES; LOSS OF USE, DATA, OR PROFITS; OR BUSINESS INTERRUPTION) HOWEVER
  33:Src/gpio.c    ****   * CAUSED AND ON ANY THEORY OF LIABILITY, WHETHER IN CONTRACT, STRICT LIABILITY,
  34:Src/gpio.c    ****   * OR TORT (INCLUDING NEGLIGENCE OR OTHERWISE) ARISING IN ANY WAY OUT OF THE USE
  35:Src/gpio.c    ****   * OF THIS SOFTWARE, EVEN IF ADVISED OF THE POSSIBILITY OF SUCH DAMAGE.
  36:Src/gpio.c    ****   *
  37:Src/gpio.c    ****   ******************************************************************************
  38:Src/gpio.c    ****   */
  39:Src/gpio.c    **** 
  40:Src/gpio.c    **** /* Includes ------------------------------------------------------------------*/
  41:Src/gpio.c    **** #include "gpio.h"
  42:Src/gpio.c    **** /* USER CODE BEGIN 0 */
  43:Src/gpio.c    **** 
  44:Src/gpio.c    **** /* USER CODE END 0 */
  45:Src/gpio.c    **** 
  46:Src/gpio.c    **** /*----------------------------------------------------------------------------*/
  47:Src/gpio.c    **** /* Configure GPIO                                                             */
  48:Src/gpio.c    **** /*----------------------------------------------------------------------------*/
  49:Src/gpio.c    **** /* USER CODE BEGIN 1 */
  50:Src/gpio.c    **** 
  51:Src/gpio.c    **** /* USER CODE END 1 */
  52:Src/gpio.c    **** 
  53:Src/gpio.c    **** /** Configure pins as 
  54:Src/gpio.c    ****         * Analog 
  55:Src/gpio.c    ****         * Input 
  56:Src/gpio.c    ****         * Output
  57:Src/gpio.c    ****         * EVENT_OUT
  58:Src/gpio.c    ****         * EXTI
  59:Src/gpio.c    ****      PE6   ------> S_TIM9_CH2
  60:Src/gpio.c    **** */
  61:Src/gpio.c    **** void MX_GPIO_Init(void)
  62:Src/gpio.c    **** {
  30              		.loc 1 62 0
  31              		.cfi_startproc
  32              		@ args = 0, pretend = 0, frame = 48
  33              		@ frame_needed = 0, uses_anonymous_args = 0
  34 0000 2DE9F04F 		push	{r4, r5, r6, r7, r8, r9, r10, fp, lr}
  35              	.LCFI0:
  36              		.cfi_def_cfa_offset 36
  37              		.cfi_offset 4, -36
  38              		.cfi_offset 5, -32
  39              		.cfi_offset 6, -28
  40              		.cfi_offset 7, -24
  41              		.cfi_offset 8, -20
  42              		.cfi_offset 9, -16
  43              		.cfi_offset 10, -12
  44              		.cfi_offset 11, -8
  45              		.cfi_offset 14, -4
  46 0004 8DB0     		sub	sp, sp, #52
  47              	.LCFI1:
  48              		.cfi_def_cfa_offset 88
  49              	.LBB2:
  63:Src/gpio.c    **** 
  64:Src/gpio.c    ****   GPIO_InitTypeDef GPIO_InitStruct;
  65:Src/gpio.c    **** 
  66:Src/gpio.c    ****   /* GPIO Ports Clock Enable */
ARM GAS  C:\Users\shun2\AppData\Local\Temp\ccPfx1KS.s 			page 3


  67:Src/gpio.c    ****   __HAL_RCC_GPIOE_CLK_ENABLE();
  50              		.loc 1 67 0
  51 0006 0024     		movs	r4, #0
  52 0008 0194     		str	r4, [sp, #4]
  53 000a 864B     		ldr	r3, .L3
  54 000c 1A6B     		ldr	r2, [r3, #48]
  55 000e 42F01002 		orr	r2, r2, #16
  56 0012 1A63     		str	r2, [r3, #48]
  57 0014 1A6B     		ldr	r2, [r3, #48]
  58 0016 02F01002 		and	r2, r2, #16
  59 001a 0192     		str	r2, [sp, #4]
  60 001c 019A     		ldr	r2, [sp, #4]
  61              	.LBE2:
  62              	.LBB3:
  68:Src/gpio.c    ****   __HAL_RCC_GPIOC_CLK_ENABLE();
  63              		.loc 1 68 0
  64 001e 0294     		str	r4, [sp, #8]
  65 0020 1A6B     		ldr	r2, [r3, #48]
  66 0022 42F00402 		orr	r2, r2, #4
  67 0026 1A63     		str	r2, [r3, #48]
  68 0028 1A6B     		ldr	r2, [r3, #48]
  69 002a 02F00402 		and	r2, r2, #4
  70 002e 0292     		str	r2, [sp, #8]
  71 0030 029A     		ldr	r2, [sp, #8]
  72              	.LBE3:
  73              	.LBB4:
  69:Src/gpio.c    ****   __HAL_RCC_GPIOH_CLK_ENABLE();
  74              		.loc 1 69 0
  75 0032 0394     		str	r4, [sp, #12]
  76 0034 1A6B     		ldr	r2, [r3, #48]
  77 0036 42F08002 		orr	r2, r2, #128
  78 003a 1A63     		str	r2, [r3, #48]
  79 003c 1A6B     		ldr	r2, [r3, #48]
  80 003e 02F08002 		and	r2, r2, #128
  81 0042 0392     		str	r2, [sp, #12]
  82 0044 039A     		ldr	r2, [sp, #12]
  83              	.LBE4:
  84              	.LBB5:
  70:Src/gpio.c    ****   __HAL_RCC_GPIOA_CLK_ENABLE();
  85              		.loc 1 70 0
  86 0046 0494     		str	r4, [sp, #16]
  87 0048 1A6B     		ldr	r2, [r3, #48]
  88 004a 42F00102 		orr	r2, r2, #1
  89 004e 1A63     		str	r2, [r3, #48]
  90 0050 1A6B     		ldr	r2, [r3, #48]
  91 0052 02F00102 		and	r2, r2, #1
  92 0056 0492     		str	r2, [sp, #16]
  93 0058 049A     		ldr	r2, [sp, #16]
  94              	.LBE5:
  95              	.LBB6:
  71:Src/gpio.c    ****   __HAL_RCC_GPIOB_CLK_ENABLE();
  96              		.loc 1 71 0
  97 005a 0594     		str	r4, [sp, #20]
  98 005c 1A6B     		ldr	r2, [r3, #48]
  99 005e 42F00202 		orr	r2, r2, #2
 100 0062 1A63     		str	r2, [r3, #48]
 101 0064 1A6B     		ldr	r2, [r3, #48]
ARM GAS  C:\Users\shun2\AppData\Local\Temp\ccPfx1KS.s 			page 4


 102 0066 02F00202 		and	r2, r2, #2
 103 006a 0592     		str	r2, [sp, #20]
 104 006c 059A     		ldr	r2, [sp, #20]
 105              	.LBE6:
 106              	.LBB7:
  72:Src/gpio.c    ****   __HAL_RCC_GPIOD_CLK_ENABLE();
 107              		.loc 1 72 0
 108 006e 0694     		str	r4, [sp, #24]
 109 0070 1A6B     		ldr	r2, [r3, #48]
 110 0072 42F00802 		orr	r2, r2, #8
 111 0076 1A63     		str	r2, [r3, #48]
 112 0078 1B6B     		ldr	r3, [r3, #48]
 113 007a 03F00803 		and	r3, r3, #8
 114 007e 0693     		str	r3, [sp, #24]
 115 0080 069B     		ldr	r3, [sp, #24]
 116              	.LBE7:
  73:Src/gpio.c    **** 
  74:Src/gpio.c    ****   /*Configure GPIO pin Output Level */
  75:Src/gpio.c    ****   HAL_GPIO_WritePin(GPIOE, RAM_CS_Pin|M1_EN_Pin|M1_INB_Pin|M1_CS_Pin 
 117              		.loc 1 75 0
 118 0082 DFF8B491 		ldr	r9, .L3+20
 119 0086 2246     		mov	r2, r4
 120 0088 4FF2A051 		movw	r1, #62880
 121 008c 4846     		mov	r0, r9
 122 008e FFF7FEFF 		bl	HAL_GPIO_WritePin
 123              	.LVL0:
  76:Src/gpio.c    ****                           |M2_EN_Pin|M2_INA_Pin|M2_INB_Pin|M2_CS_Pin, GPIO_PIN_RESET);
  77:Src/gpio.c    **** 
  78:Src/gpio.c    ****   /*Configure GPIO pin Output Level */
  79:Src/gpio.c    ****   HAL_GPIO_WritePin(GPIOC, FLED_BLUE_Pin|FLED_GREEN_Pin|FLED_RED_Pin|CL_Pin 
 124              		.loc 1 79 0
 125 0092 654F     		ldr	r7, .L3+4
 126 0094 2246     		mov	r2, r4
 127 0096 4FF47D41 		mov	r1, #64768
 128 009a 3846     		mov	r0, r7
 129 009c FFF7FEFF 		bl	HAL_GPIO_WritePin
 130              	.LVL1:
  80:Src/gpio.c    ****                           |MVSIG1_Pin|MVSIG2_Pin|MVSIG3_Pin, GPIO_PIN_RESET);
  81:Src/gpio.c    **** 
  82:Src/gpio.c    ****   /*Configure GPIO pin Output Level */
  83:Src/gpio.c    ****   HAL_GPIO_WritePin(GPIOA, RAM_HOLD_Pin|DP1_Pin|DP2_Pin|LED_RST_Pin 
 131              		.loc 1 83 0
 132 00a0 2246     		mov	r2, r4
 133 00a2 49F61041 		movw	r1, #39952
 134 00a6 6148     		ldr	r0, .L3+8
 135 00a8 FFF7FEFF 		bl	HAL_GPIO_WritePin
 136              	.LVL2:
  84:Src/gpio.c    ****                           |BUZZER_Pin, GPIO_PIN_RESET);
  85:Src/gpio.c    **** 
  86:Src/gpio.c    ****   /*Configure GPIO pin Output Level */
  87:Src/gpio.c    ****   HAL_GPIO_WritePin(GPIOB, E1_Pin|E2_Pin|M1_INA_Pin|LCD_CS_Pin 
 137              		.loc 1 87 0
 138 00ac DFF88CA1 		ldr	r10, .L3+24
 139 00b0 2246     		mov	r2, r4
 140 00b2 4CF20F31 		movw	r1, #49935
 141 00b6 5046     		mov	r0, r10
 142 00b8 FFF7FEFF 		bl	HAL_GPIO_WritePin
ARM GAS  C:\Users\shun2\AppData\Local\Temp\ccPfx1KS.s 			page 5


 143              	.LVL3:
  88:Src/gpio.c    ****                           |LCD_RST_Pin|GATE_Pin|FET1_Pin|FET2_Pin, GPIO_PIN_RESET);
  89:Src/gpio.c    **** 
  90:Src/gpio.c    ****   /*Configure GPIO pin Output Level */
  91:Src/gpio.c    ****   HAL_GPIO_WritePin(GPIOD, ST_MOTOR_CH4_Pin|ST_MOTOR_CH3_Pin|ST_MOTOR_CH2_Pin|ST_MOTOR_CH1_Pin, GPI
 144              		.loc 1 91 0
 145 00bc 5C4E     		ldr	r6, .L3+12
 146 00be 0122     		movs	r2, #1
 147 00c0 4FF47041 		mov	r1, #61440
 148 00c4 3046     		mov	r0, r6
 149 00c6 FFF7FEFF 		bl	HAL_GPIO_WritePin
 150              	.LVL4:
  92:Src/gpio.c    **** 
  93:Src/gpio.c    ****   /*Configure GPIO pin Output Level */
  94:Src/gpio.c    ****   HAL_GPIO_WritePin(GPIOD, RANGE_Pin|CK_Pin, GPIO_PIN_RESET);
 151              		.loc 1 94 0
 152 00ca 2246     		mov	r2, r4
 153 00cc C021     		movs	r1, #192
 154 00ce 3046     		mov	r0, r6
 155 00d0 FFF7FEFF 		bl	HAL_GPIO_WritePin
 156              	.LVL5:
  95:Src/gpio.c    **** 
  96:Src/gpio.c    ****   /*Configure GPIO pins : PEPin PEPin PEPin */
  97:Src/gpio.c    ****   GPIO_InitStruct.Pin = MVS3_Pin|MVS2_Pin|MVS1_Pin;
 157              		.loc 1 97 0
 158 00d4 1C23     		movs	r3, #28
 159 00d6 0793     		str	r3, [sp, #28]
  98:Src/gpio.c    ****   GPIO_InitStruct.Mode = GPIO_MODE_IT_FALLING;
 160              		.loc 1 98 0
 161 00d8 564B     		ldr	r3, .L3+16
 162 00da 0893     		str	r3, [sp, #32]
  99:Src/gpio.c    ****   GPIO_InitStruct.Pull = GPIO_NOPULL;
 163              		.loc 1 99 0
 164 00dc 0994     		str	r4, [sp, #36]
 100:Src/gpio.c    ****   HAL_GPIO_Init(GPIOE, &GPIO_InitStruct);
 165              		.loc 1 100 0
 166 00de 07A9     		add	r1, sp, #28
 167 00e0 4846     		mov	r0, r9
 168 00e2 FFF7FEFF 		bl	HAL_GPIO_Init
 169              	.LVL6:
 101:Src/gpio.c    **** 
 102:Src/gpio.c    ****   /*Configure GPIO pins : PEPin PEPin PEPin PEPin 
 103:Src/gpio.c    ****                            PEPin PEPin PEPin PEPin */
 104:Src/gpio.c    ****   GPIO_InitStruct.Pin = RAM_CS_Pin|M1_EN_Pin|M1_INB_Pin|M1_CS_Pin 
 170              		.loc 1 104 0
 171 00e6 4FF2A053 		movw	r3, #62880
 172 00ea 0793     		str	r3, [sp, #28]
 105:Src/gpio.c    ****                           |M2_EN_Pin|M2_INA_Pin|M2_INB_Pin|M2_CS_Pin;
 106:Src/gpio.c    ****   GPIO_InitStruct.Mode = GPIO_MODE_OUTPUT_PP;
 173              		.loc 1 106 0
 174 00ec 0125     		movs	r5, #1
 175 00ee 0895     		str	r5, [sp, #32]
 107:Src/gpio.c    ****   GPIO_InitStruct.Pull = GPIO_NOPULL;
 176              		.loc 1 107 0
 177 00f0 0994     		str	r4, [sp, #36]
 108:Src/gpio.c    ****   GPIO_InitStruct.Speed = GPIO_SPEED_FREQ_LOW;
 178              		.loc 1 108 0
ARM GAS  C:\Users\shun2\AppData\Local\Temp\ccPfx1KS.s 			page 6


 179 00f2 0A94     		str	r4, [sp, #40]
 109:Src/gpio.c    ****   HAL_GPIO_Init(GPIOE, &GPIO_InitStruct);
 180              		.loc 1 109 0
 181 00f4 07A9     		add	r1, sp, #28
 182 00f6 4846     		mov	r0, r9
 183 00f8 FFF7FEFF 		bl	HAL_GPIO_Init
 184              	.LVL7:
 110:Src/gpio.c    **** 
 111:Src/gpio.c    ****   /*Configure GPIO pin : PtPin */
 112:Src/gpio.c    ****   GPIO_InitStruct.Pin = ESC_Pin;
 185              		.loc 1 112 0
 186 00fc 4023     		movs	r3, #64
 187 00fe 0793     		str	r3, [sp, #28]
 113:Src/gpio.c    ****   GPIO_InitStruct.Mode = GPIO_MODE_AF_PP;
 188              		.loc 1 113 0
 189 0100 4FF00208 		mov	r8, #2
 190 0104 CDF82080 		str	r8, [sp, #32]
 114:Src/gpio.c    ****   GPIO_InitStruct.Pull = GPIO_NOPULL;
 191              		.loc 1 114 0
 192 0108 0994     		str	r4, [sp, #36]
 115:Src/gpio.c    ****   GPIO_InitStruct.Speed = GPIO_SPEED_FREQ_LOW;
 193              		.loc 1 115 0
 194 010a 0A94     		str	r4, [sp, #40]
 116:Src/gpio.c    ****   GPIO_InitStruct.Alternate = GPIO_AF3_TIM9;
 195              		.loc 1 116 0
 196 010c 4FF0030B 		mov	fp, #3
 197 0110 CDF82CB0 		str	fp, [sp, #44]
 117:Src/gpio.c    ****   HAL_GPIO_Init(ESC_GPIO_Port, &GPIO_InitStruct);
 198              		.loc 1 117 0
 199 0114 07A9     		add	r1, sp, #28
 200 0116 4846     		mov	r0, r9
 201 0118 FFF7FEFF 		bl	HAL_GPIO_Init
 202              	.LVL8:
 118:Src/gpio.c    **** 
 119:Src/gpio.c    ****   /*Configure GPIO pins : PCPin PCPin PCPin */
 120:Src/gpio.c    ****   GPIO_InitStruct.Pin = FLED_BLUE_Pin|FLED_GREEN_Pin|FLED_RED_Pin;
 203              		.loc 1 120 0
 204 011c 4FF46043 		mov	r3, #57344
 205 0120 0793     		str	r3, [sp, #28]
 121:Src/gpio.c    ****   GPIO_InitStruct.Mode = GPIO_MODE_OUTPUT_PP;
 206              		.loc 1 121 0
 207 0122 0895     		str	r5, [sp, #32]
 122:Src/gpio.c    ****   GPIO_InitStruct.Pull = GPIO_PULLUP;
 208              		.loc 1 122 0
 209 0124 0995     		str	r5, [sp, #36]
 123:Src/gpio.c    ****   GPIO_InitStruct.Speed = GPIO_SPEED_FREQ_LOW;
 210              		.loc 1 123 0
 211 0126 0A94     		str	r4, [sp, #40]
 124:Src/gpio.c    ****   HAL_GPIO_Init(GPIOC, &GPIO_InitStruct);
 212              		.loc 1 124 0
 213 0128 07A9     		add	r1, sp, #28
 214 012a 3846     		mov	r0, r7
 215 012c FFF7FEFF 		bl	HAL_GPIO_Init
 216              	.LVL9:
 125:Src/gpio.c    **** 
 126:Src/gpio.c    ****   /*Configure GPIO pins : PCPin PCPin */
 127:Src/gpio.c    ****   GPIO_InitStruct.Pin = TOUCH1_Pin|TOUCH2_Pin;
ARM GAS  C:\Users\shun2\AppData\Local\Temp\ccPfx1KS.s 			page 7


 217              		.loc 1 127 0
 218 0130 CDF81CB0 		str	fp, [sp, #28]
 128:Src/gpio.c    ****   GPIO_InitStruct.Mode = GPIO_MODE_AF_PP;
 219              		.loc 1 128 0
 220 0134 CDF82080 		str	r8, [sp, #32]
 129:Src/gpio.c    ****   GPIO_InitStruct.Pull = GPIO_NOPULL;
 221              		.loc 1 129 0
 222 0138 0994     		str	r4, [sp, #36]
 130:Src/gpio.c    ****   GPIO_InitStruct.Speed = GPIO_SPEED_FREQ_LOW;
 223              		.loc 1 130 0
 224 013a 0A94     		str	r4, [sp, #40]
 131:Src/gpio.c    ****   GPIO_InitStruct.Alternate = GPIO_AF15_EVENTOUT;
 225              		.loc 1 131 0
 226 013c 4FF00F09 		mov	r9, #15
 227 0140 CDF82C90 		str	r9, [sp, #44]
 132:Src/gpio.c    ****   HAL_GPIO_Init(GPIOC, &GPIO_InitStruct);
 228              		.loc 1 132 0
 229 0144 07A9     		add	r1, sp, #28
 230 0146 3846     		mov	r0, r7
 231 0148 FFF7FEFF 		bl	HAL_GPIO_Init
 232              	.LVL10:
 133:Src/gpio.c    **** 
 134:Src/gpio.c    ****   /*Configure GPIO pins : PAPin PAPin PAPin PAPin 
 135:Src/gpio.c    ****                            PAPin */
 136:Src/gpio.c    ****   GPIO_InitStruct.Pin = RAM_HOLD_Pin|DP1_Pin|DP2_Pin|LED_RST_Pin 
 233              		.loc 1 136 0
 234 014c 49F61043 		movw	r3, #39952
 235 0150 0793     		str	r3, [sp, #28]
 137:Src/gpio.c    ****                           |BUZZER_Pin;
 138:Src/gpio.c    ****   GPIO_InitStruct.Mode = GPIO_MODE_OUTPUT_PP;
 236              		.loc 1 138 0
 237 0152 0895     		str	r5, [sp, #32]
 139:Src/gpio.c    ****   GPIO_InitStruct.Pull = GPIO_NOPULL;
 238              		.loc 1 139 0
 239 0154 0994     		str	r4, [sp, #36]
 140:Src/gpio.c    ****   GPIO_InitStruct.Speed = GPIO_SPEED_FREQ_LOW;
 240              		.loc 1 140 0
 241 0156 0A94     		str	r4, [sp, #40]
 141:Src/gpio.c    ****   HAL_GPIO_Init(GPIOA, &GPIO_InitStruct);
 242              		.loc 1 141 0
 243 0158 07A9     		add	r1, sp, #28
 244 015a 3448     		ldr	r0, .L3+8
 245 015c FFF7FEFF 		bl	HAL_GPIO_Init
 246              	.LVL11:
 142:Src/gpio.c    **** 
 143:Src/gpio.c    ****   /*Configure GPIO pins : PBPin PBPin PBPin PBPin 
 144:Src/gpio.c    ****                            PBPin PBPin PBPin PBPin */
 145:Src/gpio.c    ****   GPIO_InitStruct.Pin = E1_Pin|E2_Pin|M1_INA_Pin|LCD_CS_Pin 
 247              		.loc 1 145 0
 248 0160 4CF20F33 		movw	r3, #49935
 249 0164 0793     		str	r3, [sp, #28]
 146:Src/gpio.c    ****                           |LCD_RST_Pin|GATE_Pin|FET1_Pin|FET2_Pin;
 147:Src/gpio.c    ****   GPIO_InitStruct.Mode = GPIO_MODE_OUTPUT_PP;
 250              		.loc 1 147 0
 251 0166 0895     		str	r5, [sp, #32]
 148:Src/gpio.c    ****   GPIO_InitStruct.Pull = GPIO_NOPULL;
 252              		.loc 1 148 0
ARM GAS  C:\Users\shun2\AppData\Local\Temp\ccPfx1KS.s 			page 8


 253 0168 0994     		str	r4, [sp, #36]
 149:Src/gpio.c    ****   GPIO_InitStruct.Speed = GPIO_SPEED_FREQ_LOW;
 254              		.loc 1 149 0
 255 016a 0A94     		str	r4, [sp, #40]
 150:Src/gpio.c    ****   HAL_GPIO_Init(GPIOB, &GPIO_InitStruct);
 256              		.loc 1 150 0
 257 016c 07A9     		add	r1, sp, #28
 258 016e 5046     		mov	r0, r10
 259 0170 FFF7FEFF 		bl	HAL_GPIO_Init
 260              	.LVL12:
 151:Src/gpio.c    **** 
 152:Src/gpio.c    ****   /*Configure GPIO pins : PDPin PDPin PDPin */
 153:Src/gpio.c    ****   GPIO_InitStruct.Pin = SW1_Pin|SW2_Pin|SW3_Pin;
 261              		.loc 1 153 0
 262 0174 4FF4E063 		mov	r3, #1792
 263 0178 0793     		str	r3, [sp, #28]
 154:Src/gpio.c    ****   GPIO_InitStruct.Mode = GPIO_MODE_AF_PP;
 264              		.loc 1 154 0
 265 017a CDF82080 		str	r8, [sp, #32]
 155:Src/gpio.c    ****   GPIO_InitStruct.Pull = GPIO_NOPULL;
 266              		.loc 1 155 0
 267 017e 0994     		str	r4, [sp, #36]
 156:Src/gpio.c    ****   GPIO_InitStruct.Speed = GPIO_SPEED_FREQ_LOW;
 268              		.loc 1 156 0
 269 0180 0A94     		str	r4, [sp, #40]
 157:Src/gpio.c    ****   GPIO_InitStruct.Alternate = GPIO_AF15_EVENTOUT;
 270              		.loc 1 157 0
 271 0182 CDF82C90 		str	r9, [sp, #44]
 158:Src/gpio.c    ****   HAL_GPIO_Init(GPIOD, &GPIO_InitStruct);
 272              		.loc 1 158 0
 273 0186 07A9     		add	r1, sp, #28
 274 0188 3046     		mov	r0, r6
 275 018a FFF7FEFF 		bl	HAL_GPIO_Init
 276              	.LVL13:
 159:Src/gpio.c    **** 
 160:Src/gpio.c    ****   /*Configure GPIO pins : PDPin PDPin PDPin PDPin 
 161:Src/gpio.c    ****                            PDPin PDPin */
 162:Src/gpio.c    ****   GPIO_InitStruct.Pin = ST_MOTOR_CH4_Pin|ST_MOTOR_CH3_Pin|ST_MOTOR_CH2_Pin|ST_MOTOR_CH1_Pin 
 277              		.loc 1 162 0
 278 018e 4FF2C003 		movw	r3, #61632
 279 0192 0793     		str	r3, [sp, #28]
 163:Src/gpio.c    ****                           |RANGE_Pin|CK_Pin;
 164:Src/gpio.c    ****   GPIO_InitStruct.Mode = GPIO_MODE_OUTPUT_PP;
 280              		.loc 1 164 0
 281 0194 0895     		str	r5, [sp, #32]
 165:Src/gpio.c    ****   GPIO_InitStruct.Pull = GPIO_NOPULL;
 282              		.loc 1 165 0
 283 0196 0994     		str	r4, [sp, #36]
 166:Src/gpio.c    ****   GPIO_InitStruct.Speed = GPIO_SPEED_FREQ_LOW;
 284              		.loc 1 166 0
 285 0198 0A94     		str	r4, [sp, #40]
 167:Src/gpio.c    ****   HAL_GPIO_Init(GPIOD, &GPIO_InitStruct);
 286              		.loc 1 167 0
 287 019a 07A9     		add	r1, sp, #28
 288 019c 3046     		mov	r0, r6
 289 019e FFF7FEFF 		bl	HAL_GPIO_Init
 290              	.LVL14:
ARM GAS  C:\Users\shun2\AppData\Local\Temp\ccPfx1KS.s 			page 9


 168:Src/gpio.c    **** 
 169:Src/gpio.c    ****   /*Configure GPIO pin : PtPin */
 170:Src/gpio.c    ****   GPIO_InitStruct.Pin = CL_Pin;
 291              		.loc 1 170 0
 292 01a2 4FF48073 		mov	r3, #256
 293 01a6 0793     		str	r3, [sp, #28]
 171:Src/gpio.c    ****   GPIO_InitStruct.Mode = GPIO_MODE_OUTPUT_PP;
 294              		.loc 1 171 0
 295 01a8 0895     		str	r5, [sp, #32]
 172:Src/gpio.c    ****   GPIO_InitStruct.Pull = GPIO_PULLDOWN;
 296              		.loc 1 172 0
 297 01aa CDF82480 		str	r8, [sp, #36]
 173:Src/gpio.c    ****   GPIO_InitStruct.Speed = GPIO_SPEED_FREQ_LOW;
 298              		.loc 1 173 0
 299 01ae 0A94     		str	r4, [sp, #40]
 174:Src/gpio.c    ****   HAL_GPIO_Init(CL_GPIO_Port, &GPIO_InitStruct);
 300              		.loc 1 174 0
 301 01b0 07A9     		add	r1, sp, #28
 302 01b2 3846     		mov	r0, r7
 303 01b4 FFF7FEFF 		bl	HAL_GPIO_Init
 304              	.LVL15:
 175:Src/gpio.c    **** 
 176:Src/gpio.c    ****   /*Configure GPIO pins : PCPin PCPin PCPin */
 177:Src/gpio.c    ****   GPIO_InitStruct.Pin = MVSIG1_Pin|MVSIG2_Pin|MVSIG3_Pin;
 305              		.loc 1 177 0
 306 01b8 4FF4E053 		mov	r3, #7168
 307 01bc 0793     		str	r3, [sp, #28]
 178:Src/gpio.c    ****   GPIO_InitStruct.Mode = GPIO_MODE_OUTPUT_PP;
 308              		.loc 1 178 0
 309 01be 0895     		str	r5, [sp, #32]
 179:Src/gpio.c    ****   GPIO_InitStruct.Pull = GPIO_NOPULL;
 310              		.loc 1 179 0
 311 01c0 0994     		str	r4, [sp, #36]
 180:Src/gpio.c    ****   GPIO_InitStruct.Speed = GPIO_SPEED_FREQ_LOW;
 312              		.loc 1 180 0
 313 01c2 0A94     		str	r4, [sp, #40]
 181:Src/gpio.c    ****   HAL_GPIO_Init(GPIOC, &GPIO_InitStruct);
 314              		.loc 1 181 0
 315 01c4 07A9     		add	r1, sp, #28
 316 01c6 3846     		mov	r0, r7
 317 01c8 FFF7FEFF 		bl	HAL_GPIO_Init
 318              	.LVL16:
 182:Src/gpio.c    **** 
 183:Src/gpio.c    ****   /*Configure GPIO pins : PDPin PDPin PDPin PDPin 
 184:Src/gpio.c    ****                            PDPin PDPin */
 185:Src/gpio.c    ****   GPIO_InitStruct.Pin = PING1_Pin|PING2_Pin|PING3_Pin|PING4_Pin 
 319              		.loc 1 185 0
 320 01cc 3F23     		movs	r3, #63
 321 01ce 0793     		str	r3, [sp, #28]
 186:Src/gpio.c    ****                           |PING5_Pin|PING6_Pin;
 187:Src/gpio.c    ****   GPIO_InitStruct.Mode = GPIO_MODE_INPUT;
 322              		.loc 1 187 0
 323 01d0 0894     		str	r4, [sp, #32]
 188:Src/gpio.c    ****   GPIO_InitStruct.Pull = GPIO_NOPULL;
 324              		.loc 1 188 0
 325 01d2 0994     		str	r4, [sp, #36]
 189:Src/gpio.c    ****   HAL_GPIO_Init(GPIOD, &GPIO_InitStruct);
ARM GAS  C:\Users\shun2\AppData\Local\Temp\ccPfx1KS.s 			page 10


 326              		.loc 1 189 0
 327 01d4 07A9     		add	r1, sp, #28
 328 01d6 3046     		mov	r0, r6
 329 01d8 FFF7FEFF 		bl	HAL_GPIO_Init
 330              	.LVL17:
 190:Src/gpio.c    **** 
 191:Src/gpio.c    ****   /*Configure GPIO pin : PtPin */
 192:Src/gpio.c    ****   GPIO_InitStruct.Pin = DOUT_Pin;
 331              		.loc 1 192 0
 332 01dc 1023     		movs	r3, #16
 333 01de 0793     		str	r3, [sp, #28]
 193:Src/gpio.c    ****   GPIO_InitStruct.Mode = GPIO_MODE_INPUT;
 334              		.loc 1 193 0
 335 01e0 0894     		str	r4, [sp, #32]
 194:Src/gpio.c    ****   GPIO_InitStruct.Pull = GPIO_NOPULL;
 336              		.loc 1 194 0
 337 01e2 0994     		str	r4, [sp, #36]
 195:Src/gpio.c    ****   HAL_GPIO_Init(DOUT_GPIO_Port, &GPIO_InitStruct);
 338              		.loc 1 195 0
 339 01e4 07A9     		add	r1, sp, #28
 340 01e6 5046     		mov	r0, r10
 341 01e8 FFF7FEFF 		bl	HAL_GPIO_Init
 342              	.LVL18:
 196:Src/gpio.c    **** 
 197:Src/gpio.c    ****   /* EXTI interrupt init*/
 198:Src/gpio.c    ****   HAL_NVIC_SetPriority(EXTI2_IRQn, 1, 0);
 343              		.loc 1 198 0
 344 01ec 2246     		mov	r2, r4
 345 01ee 2946     		mov	r1, r5
 346 01f0 0820     		movs	r0, #8
 347 01f2 FFF7FEFF 		bl	HAL_NVIC_SetPriority
 348              	.LVL19:
 199:Src/gpio.c    ****   HAL_NVIC_EnableIRQ(EXTI2_IRQn);
 349              		.loc 1 199 0
 350 01f6 0820     		movs	r0, #8
 351 01f8 FFF7FEFF 		bl	HAL_NVIC_EnableIRQ
 352              	.LVL20:
 200:Src/gpio.c    **** 
 201:Src/gpio.c    ****   HAL_NVIC_SetPriority(EXTI3_IRQn, 1, 0);
 353              		.loc 1 201 0
 354 01fc 2246     		mov	r2, r4
 355 01fe 2946     		mov	r1, r5
 356 0200 0920     		movs	r0, #9
 357 0202 FFF7FEFF 		bl	HAL_NVIC_SetPriority
 358              	.LVL21:
 202:Src/gpio.c    ****   HAL_NVIC_EnableIRQ(EXTI3_IRQn);
 359              		.loc 1 202 0
 360 0206 0920     		movs	r0, #9
 361 0208 FFF7FEFF 		bl	HAL_NVIC_EnableIRQ
 362              	.LVL22:
 203:Src/gpio.c    **** 
 204:Src/gpio.c    ****   HAL_NVIC_SetPriority(EXTI4_IRQn, 1, 0);
 363              		.loc 1 204 0
 364 020c 2246     		mov	r2, r4
 365 020e 2946     		mov	r1, r5
 366 0210 0A20     		movs	r0, #10
 367 0212 FFF7FEFF 		bl	HAL_NVIC_SetPriority
ARM GAS  C:\Users\shun2\AppData\Local\Temp\ccPfx1KS.s 			page 11


 368              	.LVL23:
 205:Src/gpio.c    ****   HAL_NVIC_EnableIRQ(EXTI4_IRQn);
 369              		.loc 1 205 0
 370 0216 0A20     		movs	r0, #10
 371 0218 FFF7FEFF 		bl	HAL_NVIC_EnableIRQ
 372              	.LVL24:
 206:Src/gpio.c    **** 
 207:Src/gpio.c    **** }
 373              		.loc 1 207 0
 374 021c 0DB0     		add	sp, sp, #52
 375              	.LCFI2:
 376              		.cfi_def_cfa_offset 36
 377              		@ sp needed
 378 021e BDE8F08F 		pop	{r4, r5, r6, r7, r8, r9, r10, fp, pc}
 379              	.L4:
 380 0222 00BF     		.align	2
 381              	.L3:
 382 0224 00380240 		.word	1073887232
 383 0228 00080240 		.word	1073874944
 384 022c 00000240 		.word	1073872896
 385 0230 000C0240 		.word	1073875968
 386 0234 00002110 		.word	270598144
 387 0238 00100240 		.word	1073876992
 388 023c 00040240 		.word	1073873920
 389              		.cfi_endproc
 390              	.LFE124:
 392              		.text
 393              	.Letext0:
 394              		.file 2 "c:\\program files (x86)\\gnu tools arm embedded\\5.4 2016q3\\arm-none-eabi\\include\\mach
 395              		.file 3 "c:\\program files (x86)\\gnu tools arm embedded\\5.4 2016q3\\arm-none-eabi\\include\\sys\
 396              		.file 4 "Drivers/CMSIS/Device/ST/STM32F4xx/Include/stm32f429xx.h"
 397              		.file 5 "Drivers/STM32F4xx_HAL_Driver/Inc/stm32f4xx_hal_gpio.h"
 398              		.file 6 "Drivers/STM32F4xx_HAL_Driver/Inc/stm32f4xx_hal_cortex.h"
 399              		.file 7 "Drivers/CMSIS/Include/core_cm4.h"
ARM GAS  C:\Users\shun2\AppData\Local\Temp\ccPfx1KS.s 			page 12

