ARM GAS  C:\Users\shun2\AppData\Local\Temp\cc7CdVh4.s 			page 1


   1              		.syntax unified
   2              		.cpu cortex-m4
   3              		.eabi_attribute 27, 1
   4              		.eabi_attribute 28, 1
   5              		.fpu fpv4-sp-d16
   6              		.eabi_attribute 20, 1
   7              		.eabi_attribute 21, 1
   8              		.eabi_attribute 23, 3
   9              		.eabi_attribute 24, 1
  10              		.eabi_attribute 25, 1
  11              		.eabi_attribute 26, 1
  12              		.eabi_attribute 30, 1
  13              		.eabi_attribute 34, 1
  14              		.eabi_attribute 18, 4
  15              		.thumb
  16              		.syntax unified
  17              		.file	"i2c.c"
  18              		.text
  19              	.Ltext0:
  20              		.cfi_sections	.debug_frame
  21              		.section	.text.MX_I2C2_Init,"ax",%progbits
  22              		.align	2
  23              		.global	MX_I2C2_Init
  24              		.thumb
  25              		.thumb_func
  27              	MX_I2C2_Init:
  28              	.LFB124:
  29              		.file 1 "Src/i2c.c"
   1:Src/i2c.c     **** /**
   2:Src/i2c.c     ****   ******************************************************************************
   3:Src/i2c.c     ****   * File Name          : I2C.c
   4:Src/i2c.c     ****   * Description        : This file provides code for the configuration
   5:Src/i2c.c     ****   *                      of the I2C instances.
   6:Src/i2c.c     ****   ******************************************************************************
   7:Src/i2c.c     ****   ** This notice applies to any and all portions of this file
   8:Src/i2c.c     ****   * that are not between comment pairs USER CODE BEGIN and
   9:Src/i2c.c     ****   * USER CODE END. Other portions of this file, whether 
  10:Src/i2c.c     ****   * inserted by the user or by software development tools
  11:Src/i2c.c     ****   * are owned by their respective copyright owners.
  12:Src/i2c.c     ****   *
  13:Src/i2c.c     ****   * COPYRIGHT(c) 2019 STMicroelectronics
  14:Src/i2c.c     ****   *
  15:Src/i2c.c     ****   * Redistribution and use in source and binary forms, with or without modification,
  16:Src/i2c.c     ****   * are permitted provided that the following conditions are met:
  17:Src/i2c.c     ****   *   1. Redistributions of source code must retain the above copyright notice,
  18:Src/i2c.c     ****   *      this list of conditions and the following disclaimer.
  19:Src/i2c.c     ****   *   2. Redistributions in binary form must reproduce the above copyright notice,
  20:Src/i2c.c     ****   *      this list of conditions and the following disclaimer in the documentation
  21:Src/i2c.c     ****   *      and/or other materials provided with the distribution.
  22:Src/i2c.c     ****   *   3. Neither the name of STMicroelectronics nor the names of its contributors
  23:Src/i2c.c     ****   *      may be used to endorse or promote products derived from this software
  24:Src/i2c.c     ****   *      without specific prior written permission.
  25:Src/i2c.c     ****   *
  26:Src/i2c.c     ****   * THIS SOFTWARE IS PROVIDED BY THE COPYRIGHT HOLDERS AND CONTRIBUTORS "AS IS"
  27:Src/i2c.c     ****   * AND ANY EXPRESS OR IMPLIED WARRANTIES, INCLUDING, BUT NOT LIMITED TO, THE
  28:Src/i2c.c     ****   * IMPLIED WARRANTIES OF MERCHANTABILITY AND FITNESS FOR A PARTICULAR PURPOSE ARE
  29:Src/i2c.c     ****   * DISCLAIMED. IN NO EVENT SHALL THE COPYRIGHT HOLDER OR CONTRIBUTORS BE LIABLE
ARM GAS  C:\Users\shun2\AppData\Local\Temp\cc7CdVh4.s 			page 2


  30:Src/i2c.c     ****   * FOR ANY DIRECT, INDIRECT, INCIDENTAL, SPECIAL, EXEMPLARY, OR CONSEQUENTIAL
  31:Src/i2c.c     ****   * DAMAGES (INCLUDING, BUT NOT LIMITED TO, PROCUREMENT OF SUBSTITUTE GOODS OR
  32:Src/i2c.c     ****   * SERVICES; LOSS OF USE, DATA, OR PROFITS; OR BUSINESS INTERRUPTION) HOWEVER
  33:Src/i2c.c     ****   * CAUSED AND ON ANY THEORY OF LIABILITY, WHETHER IN CONTRACT, STRICT LIABILITY,
  34:Src/i2c.c     ****   * OR TORT (INCLUDING NEGLIGENCE OR OTHERWISE) ARISING IN ANY WAY OUT OF THE USE
  35:Src/i2c.c     ****   * OF THIS SOFTWARE, EVEN IF ADVISED OF THE POSSIBILITY OF SUCH DAMAGE.
  36:Src/i2c.c     ****   *
  37:Src/i2c.c     ****   ******************************************************************************
  38:Src/i2c.c     ****   */
  39:Src/i2c.c     **** 
  40:Src/i2c.c     **** /* Includes ------------------------------------------------------------------*/
  41:Src/i2c.c     **** #include "i2c.h"
  42:Src/i2c.c     **** 
  43:Src/i2c.c     **** #include "gpio.h"
  44:Src/i2c.c     **** 
  45:Src/i2c.c     **** /* USER CODE BEGIN 0 */
  46:Src/i2c.c     **** 
  47:Src/i2c.c     **** /* USER CODE END 0 */
  48:Src/i2c.c     **** 
  49:Src/i2c.c     **** I2C_HandleTypeDef hi2c2;
  50:Src/i2c.c     **** I2C_HandleTypeDef hi2c3;
  51:Src/i2c.c     **** 
  52:Src/i2c.c     **** /* I2C2 init function */
  53:Src/i2c.c     **** void MX_I2C2_Init(void)
  54:Src/i2c.c     **** {
  30              		.loc 1 54 0
  31              		.cfi_startproc
  32              		@ args = 0, pretend = 0, frame = 0
  33              		@ frame_needed = 0, uses_anonymous_args = 0
  34 0000 08B5     		push	{r3, lr}
  35              	.LCFI0:
  36              		.cfi_def_cfa_offset 8
  37              		.cfi_offset 3, -8
  38              		.cfi_offset 14, -4
  55:Src/i2c.c     **** 
  56:Src/i2c.c     ****   hi2c2.Instance = I2C2;
  39              		.loc 1 56 0
  40 0002 0B48     		ldr	r0, .L4
  41 0004 0B4B     		ldr	r3, .L4+4
  42 0006 0360     		str	r3, [r0]
  57:Src/i2c.c     ****   hi2c2.Init.ClockSpeed = 250000;
  43              		.loc 1 57 0
  44 0008 0B4B     		ldr	r3, .L4+8
  45 000a 4360     		str	r3, [r0, #4]
  58:Src/i2c.c     ****   hi2c2.Init.DutyCycle = I2C_DUTYCYCLE_2;
  46              		.loc 1 58 0
  47 000c 0023     		movs	r3, #0
  48 000e 8360     		str	r3, [r0, #8]
  59:Src/i2c.c     ****   hi2c2.Init.OwnAddress1 = 0;
  49              		.loc 1 59 0
  50 0010 C360     		str	r3, [r0, #12]
  60:Src/i2c.c     ****   hi2c2.Init.AddressingMode = I2C_ADDRESSINGMODE_7BIT;
  51              		.loc 1 60 0
  52 0012 4FF48042 		mov	r2, #16384
  53 0016 0261     		str	r2, [r0, #16]
  61:Src/i2c.c     ****   hi2c2.Init.DualAddressMode = I2C_DUALADDRESS_DISABLE;
  54              		.loc 1 61 0
ARM GAS  C:\Users\shun2\AppData\Local\Temp\cc7CdVh4.s 			page 3


  55 0018 4361     		str	r3, [r0, #20]
  62:Src/i2c.c     ****   hi2c2.Init.OwnAddress2 = 0;
  56              		.loc 1 62 0
  57 001a 8361     		str	r3, [r0, #24]
  63:Src/i2c.c     ****   hi2c2.Init.GeneralCallMode = I2C_GENERALCALL_DISABLE;
  58              		.loc 1 63 0
  59 001c C361     		str	r3, [r0, #28]
  64:Src/i2c.c     ****   hi2c2.Init.NoStretchMode = I2C_NOSTRETCH_DISABLE;
  60              		.loc 1 64 0
  61 001e 0362     		str	r3, [r0, #32]
  65:Src/i2c.c     ****   if (HAL_I2C_Init(&hi2c2) != HAL_OK)
  62              		.loc 1 65 0
  63 0020 FFF7FEFF 		bl	HAL_I2C_Init
  64              	.LVL0:
  65 0024 18B1     		cbz	r0, .L1
  66:Src/i2c.c     ****   {
  67:Src/i2c.c     ****     _Error_Handler(__FILE__, __LINE__);
  66              		.loc 1 67 0
  67 0026 4321     		movs	r1, #67
  68 0028 0448     		ldr	r0, .L4+12
  69 002a FFF7FEFF 		bl	_Error_Handler
  70              	.LVL1:
  71              	.L1:
  72 002e 08BD     		pop	{r3, pc}
  73              	.L5:
  74              		.align	2
  75              	.L4:
  76 0030 00000000 		.word	hi2c2
  77 0034 00580040 		.word	1073764352
  78 0038 90D00300 		.word	250000
  79 003c 00000000 		.word	.LC0
  80              		.cfi_endproc
  81              	.LFE124:
  83              		.section	.text.MX_I2C3_Init,"ax",%progbits
  84              		.align	2
  85              		.global	MX_I2C3_Init
  86              		.thumb
  87              		.thumb_func
  89              	MX_I2C3_Init:
  90              	.LFB125:
  68:Src/i2c.c     ****   }
  69:Src/i2c.c     **** 
  70:Src/i2c.c     **** }
  71:Src/i2c.c     **** /* I2C3 init function */
  72:Src/i2c.c     **** void MX_I2C3_Init(void)
  73:Src/i2c.c     **** {
  91              		.loc 1 73 0
  92              		.cfi_startproc
  93              		@ args = 0, pretend = 0, frame = 0
  94              		@ frame_needed = 0, uses_anonymous_args = 0
  95 0000 08B5     		push	{r3, lr}
  96              	.LCFI1:
  97              		.cfi_def_cfa_offset 8
  98              		.cfi_offset 3, -8
  99              		.cfi_offset 14, -4
  74:Src/i2c.c     **** 
  75:Src/i2c.c     ****   hi2c3.Instance = I2C3;
ARM GAS  C:\Users\shun2\AppData\Local\Temp\cc7CdVh4.s 			page 4


 100              		.loc 1 75 0
 101 0002 0C48     		ldr	r0, .L9
 102 0004 0C4B     		ldr	r3, .L9+4
 103 0006 0360     		str	r3, [r0]
  76:Src/i2c.c     ****   hi2c3.Init.ClockSpeed = 100000;
 104              		.loc 1 76 0
 105 0008 0C4B     		ldr	r3, .L9+8
 106 000a 4360     		str	r3, [r0, #4]
  77:Src/i2c.c     ****   hi2c3.Init.DutyCycle = I2C_DUTYCYCLE_2;
 107              		.loc 1 77 0
 108 000c 0023     		movs	r3, #0
 109 000e 8360     		str	r3, [r0, #8]
  78:Src/i2c.c     ****   hi2c3.Init.OwnAddress1 = 0;
 110              		.loc 1 78 0
 111 0010 C360     		str	r3, [r0, #12]
  79:Src/i2c.c     ****   hi2c3.Init.AddressingMode = I2C_ADDRESSINGMODE_7BIT;
 112              		.loc 1 79 0
 113 0012 4FF48042 		mov	r2, #16384
 114 0016 0261     		str	r2, [r0, #16]
  80:Src/i2c.c     ****   hi2c3.Init.DualAddressMode = I2C_DUALADDRESS_DISABLE;
 115              		.loc 1 80 0
 116 0018 4361     		str	r3, [r0, #20]
  81:Src/i2c.c     ****   hi2c3.Init.OwnAddress2 = 0;
 117              		.loc 1 81 0
 118 001a 8361     		str	r3, [r0, #24]
  82:Src/i2c.c     ****   hi2c3.Init.GeneralCallMode = I2C_GENERALCALL_DISABLE;
 119              		.loc 1 82 0
 120 001c C361     		str	r3, [r0, #28]
  83:Src/i2c.c     ****   hi2c3.Init.NoStretchMode = I2C_NOSTRETCH_ENABLE;
 121              		.loc 1 83 0
 122 001e 8023     		movs	r3, #128
 123 0020 0362     		str	r3, [r0, #32]
  84:Src/i2c.c     ****   if (HAL_I2C_Init(&hi2c3) != HAL_OK)
 124              		.loc 1 84 0
 125 0022 FFF7FEFF 		bl	HAL_I2C_Init
 126              	.LVL2:
 127 0026 18B1     		cbz	r0, .L6
  85:Src/i2c.c     ****   {
  86:Src/i2c.c     ****     _Error_Handler(__FILE__, __LINE__);
 128              		.loc 1 86 0
 129 0028 5621     		movs	r1, #86
 130 002a 0548     		ldr	r0, .L9+12
 131 002c FFF7FEFF 		bl	_Error_Handler
 132              	.LVL3:
 133              	.L6:
 134 0030 08BD     		pop	{r3, pc}
 135              	.L10:
 136 0032 00BF     		.align	2
 137              	.L9:
 138 0034 00000000 		.word	hi2c3
 139 0038 005C0040 		.word	1073765376
 140 003c A0860100 		.word	100000
 141 0040 00000000 		.word	.LC0
 142              		.cfi_endproc
 143              	.LFE125:
 145              		.section	.text.HAL_I2C_MspInit,"ax",%progbits
 146              		.align	2
ARM GAS  C:\Users\shun2\AppData\Local\Temp\cc7CdVh4.s 			page 5


 147              		.global	HAL_I2C_MspInit
 148              		.thumb
 149              		.thumb_func
 151              	HAL_I2C_MspInit:
 152              	.LFB126:
  87:Src/i2c.c     ****   }
  88:Src/i2c.c     **** 
  89:Src/i2c.c     **** }
  90:Src/i2c.c     **** 
  91:Src/i2c.c     **** void HAL_I2C_MspInit(I2C_HandleTypeDef* i2cHandle)
  92:Src/i2c.c     **** {
 153              		.loc 1 92 0
 154              		.cfi_startproc
 155              		@ args = 0, pretend = 0, frame = 32
 156              		@ frame_needed = 0, uses_anonymous_args = 0
 157              	.LVL4:
 158 0000 F0B5     		push	{r4, r5, r6, r7, lr}
 159              	.LCFI2:
 160              		.cfi_def_cfa_offset 20
 161              		.cfi_offset 4, -20
 162              		.cfi_offset 5, -16
 163              		.cfi_offset 6, -12
 164              		.cfi_offset 7, -8
 165              		.cfi_offset 14, -4
 166 0002 89B0     		sub	sp, sp, #36
 167              	.LCFI3:
 168              		.cfi_def_cfa_offset 56
  93:Src/i2c.c     **** 
  94:Src/i2c.c     ****   GPIO_InitTypeDef GPIO_InitStruct;
  95:Src/i2c.c     ****   if(i2cHandle->Instance==I2C2)
 169              		.loc 1 95 0
 170 0004 0368     		ldr	r3, [r0]
 171 0006 244A     		ldr	r2, .L15
 172 0008 9342     		cmp	r3, r2
 173 000a 1BD1     		bne	.L12
  96:Src/i2c.c     ****   {
  97:Src/i2c.c     ****   /* USER CODE BEGIN I2C2_MspInit 0 */
  98:Src/i2c.c     **** 
  99:Src/i2c.c     ****   /* USER CODE END I2C2_MspInit 0 */
 100:Src/i2c.c     ****   
 101:Src/i2c.c     ****     /**I2C2 GPIO Configuration    
 102:Src/i2c.c     ****     PB10     ------> I2C2_SCL
 103:Src/i2c.c     ****     PB11     ------> I2C2_SDA 
 104:Src/i2c.c     ****     */
 105:Src/i2c.c     ****     GPIO_InitStruct.Pin = GPIO_PIN_10|GPIO_PIN_11;
 174              		.loc 1 105 0
 175 000c 4FF44063 		mov	r3, #3072
 176 0010 0393     		str	r3, [sp, #12]
 106:Src/i2c.c     ****     GPIO_InitStruct.Mode = GPIO_MODE_AF_OD;
 177              		.loc 1 106 0
 178 0012 1223     		movs	r3, #18
 179 0014 0493     		str	r3, [sp, #16]
 107:Src/i2c.c     ****     GPIO_InitStruct.Pull = GPIO_PULLUP;
 180              		.loc 1 107 0
 181 0016 0123     		movs	r3, #1
 182 0018 0593     		str	r3, [sp, #20]
 108:Src/i2c.c     ****     GPIO_InitStruct.Speed = GPIO_SPEED_FREQ_VERY_HIGH;
ARM GAS  C:\Users\shun2\AppData\Local\Temp\cc7CdVh4.s 			page 6


 183              		.loc 1 108 0
 184 001a 0323     		movs	r3, #3
 185 001c 0693     		str	r3, [sp, #24]
 109:Src/i2c.c     ****     GPIO_InitStruct.Alternate = GPIO_AF4_I2C2;
 186              		.loc 1 109 0
 187 001e 0423     		movs	r3, #4
 188 0020 0793     		str	r3, [sp, #28]
 110:Src/i2c.c     ****     HAL_GPIO_Init(GPIOB, &GPIO_InitStruct);
 189              		.loc 1 110 0
 190 0022 03A9     		add	r1, sp, #12
 191 0024 1D48     		ldr	r0, .L15+4
 192              	.LVL5:
 193 0026 FFF7FEFF 		bl	HAL_GPIO_Init
 194              	.LVL6:
 195              	.LBB2:
 111:Src/i2c.c     **** 
 112:Src/i2c.c     ****     /* I2C2 clock enable */
 113:Src/i2c.c     ****     __HAL_RCC_I2C2_CLK_ENABLE();
 196              		.loc 1 113 0
 197 002a 0023     		movs	r3, #0
 198 002c 0193     		str	r3, [sp, #4]
 199 002e 1C4B     		ldr	r3, .L15+8
 200 0030 1A6C     		ldr	r2, [r3, #64]
 201 0032 42F48002 		orr	r2, r2, #4194304
 202 0036 1A64     		str	r2, [r3, #64]
 203 0038 1B6C     		ldr	r3, [r3, #64]
 204 003a 03F48003 		and	r3, r3, #4194304
 205 003e 0193     		str	r3, [sp, #4]
 206 0040 019B     		ldr	r3, [sp, #4]
 207              	.LBE2:
 208 0042 27E0     		b	.L11
 209              	.LVL7:
 210              	.L12:
 114:Src/i2c.c     ****   /* USER CODE BEGIN I2C2_MspInit 1 */
 115:Src/i2c.c     **** 
 116:Src/i2c.c     ****   /* USER CODE END I2C2_MspInit 1 */
 117:Src/i2c.c     ****   }
 118:Src/i2c.c     ****   else if(i2cHandle->Instance==I2C3)
 211              		.loc 1 118 0
 212 0044 174A     		ldr	r2, .L15+12
 213 0046 9342     		cmp	r3, r2
 214 0048 24D1     		bne	.L11
 119:Src/i2c.c     ****   {
 120:Src/i2c.c     ****   /* USER CODE BEGIN I2C3_MspInit 0 */
 121:Src/i2c.c     **** 
 122:Src/i2c.c     ****   /* USER CODE END I2C3_MspInit 0 */
 123:Src/i2c.c     ****   
 124:Src/i2c.c     ****     /**I2C3 GPIO Configuration    
 125:Src/i2c.c     ****     PC9     ------> I2C3_SDA
 126:Src/i2c.c     ****     PA8     ------> I2C3_SCL 
 127:Src/i2c.c     ****     */
 128:Src/i2c.c     ****     GPIO_InitStruct.Pin = GPIO_PIN_9;
 215              		.loc 1 128 0
 216 004a 4FF40073 		mov	r3, #512
 217 004e 0393     		str	r3, [sp, #12]
 129:Src/i2c.c     ****     GPIO_InitStruct.Mode = GPIO_MODE_AF_OD;
 218              		.loc 1 129 0
ARM GAS  C:\Users\shun2\AppData\Local\Temp\cc7CdVh4.s 			page 7


 219 0050 1227     		movs	r7, #18
 220 0052 0497     		str	r7, [sp, #16]
 130:Src/i2c.c     ****     GPIO_InitStruct.Pull = GPIO_NOPULL;
 221              		.loc 1 130 0
 222 0054 0024     		movs	r4, #0
 223 0056 0594     		str	r4, [sp, #20]
 131:Src/i2c.c     ****     GPIO_InitStruct.Speed = GPIO_SPEED_FREQ_VERY_HIGH;
 224              		.loc 1 131 0
 225 0058 0326     		movs	r6, #3
 226 005a 0696     		str	r6, [sp, #24]
 132:Src/i2c.c     ****     GPIO_InitStruct.Alternate = GPIO_AF4_I2C3;
 227              		.loc 1 132 0
 228 005c 0425     		movs	r5, #4
 229 005e 0795     		str	r5, [sp, #28]
 133:Src/i2c.c     ****     HAL_GPIO_Init(GPIOC, &GPIO_InitStruct);
 230              		.loc 1 133 0
 231 0060 03A9     		add	r1, sp, #12
 232 0062 1148     		ldr	r0, .L15+16
 233              	.LVL8:
 234 0064 FFF7FEFF 		bl	HAL_GPIO_Init
 235              	.LVL9:
 134:Src/i2c.c     **** 
 135:Src/i2c.c     ****     GPIO_InitStruct.Pin = GPIO_PIN_8;
 236              		.loc 1 135 0
 237 0068 4FF48073 		mov	r3, #256
 238 006c 0393     		str	r3, [sp, #12]
 136:Src/i2c.c     ****     GPIO_InitStruct.Mode = GPIO_MODE_AF_OD;
 239              		.loc 1 136 0
 240 006e 0497     		str	r7, [sp, #16]
 137:Src/i2c.c     ****     GPIO_InitStruct.Pull = GPIO_NOPULL;
 241              		.loc 1 137 0
 242 0070 0594     		str	r4, [sp, #20]
 138:Src/i2c.c     ****     GPIO_InitStruct.Speed = GPIO_SPEED_FREQ_VERY_HIGH;
 243              		.loc 1 138 0
 244 0072 0696     		str	r6, [sp, #24]
 139:Src/i2c.c     ****     GPIO_InitStruct.Alternate = GPIO_AF4_I2C3;
 245              		.loc 1 139 0
 246 0074 0795     		str	r5, [sp, #28]
 140:Src/i2c.c     ****     HAL_GPIO_Init(GPIOA, &GPIO_InitStruct);
 247              		.loc 1 140 0
 248 0076 03A9     		add	r1, sp, #12
 249 0078 0C48     		ldr	r0, .L15+20
 250 007a FFF7FEFF 		bl	HAL_GPIO_Init
 251              	.LVL10:
 252              	.LBB3:
 141:Src/i2c.c     **** 
 142:Src/i2c.c     ****     /* I2C3 clock enable */
 143:Src/i2c.c     ****     __HAL_RCC_I2C3_CLK_ENABLE();
 253              		.loc 1 143 0
 254 007e 0294     		str	r4, [sp, #8]
 255 0080 074B     		ldr	r3, .L15+8
 256 0082 1A6C     		ldr	r2, [r3, #64]
 257 0084 42F40002 		orr	r2, r2, #8388608
 258 0088 1A64     		str	r2, [r3, #64]
 259 008a 1B6C     		ldr	r3, [r3, #64]
 260 008c 03F40003 		and	r3, r3, #8388608
 261 0090 0293     		str	r3, [sp, #8]
ARM GAS  C:\Users\shun2\AppData\Local\Temp\cc7CdVh4.s 			page 8


 262 0092 029B     		ldr	r3, [sp, #8]
 263              	.L11:
 264              	.LBE3:
 144:Src/i2c.c     ****   /* USER CODE BEGIN I2C3_MspInit 1 */
 145:Src/i2c.c     **** 
 146:Src/i2c.c     ****   /* USER CODE END I2C3_MspInit 1 */
 147:Src/i2c.c     ****   }
 148:Src/i2c.c     **** }
 265              		.loc 1 148 0
 266 0094 09B0     		add	sp, sp, #36
 267              	.LCFI4:
 268              		.cfi_def_cfa_offset 20
 269              		@ sp needed
 270 0096 F0BD     		pop	{r4, r5, r6, r7, pc}
 271              	.L16:
 272              		.align	2
 273              	.L15:
 274 0098 00580040 		.word	1073764352
 275 009c 00040240 		.word	1073873920
 276 00a0 00380240 		.word	1073887232
 277 00a4 005C0040 		.word	1073765376
 278 00a8 00080240 		.word	1073874944
 279 00ac 00000240 		.word	1073872896
 280              		.cfi_endproc
 281              	.LFE126:
 283              		.section	.text.HAL_I2C_MspDeInit,"ax",%progbits
 284              		.align	2
 285              		.global	HAL_I2C_MspDeInit
 286              		.thumb
 287              		.thumb_func
 289              	HAL_I2C_MspDeInit:
 290              	.LFB127:
 149:Src/i2c.c     **** 
 150:Src/i2c.c     **** void HAL_I2C_MspDeInit(I2C_HandleTypeDef* i2cHandle)
 151:Src/i2c.c     **** {
 291              		.loc 1 151 0
 292              		.cfi_startproc
 293              		@ args = 0, pretend = 0, frame = 0
 294              		@ frame_needed = 0, uses_anonymous_args = 0
 295              	.LVL11:
 296 0000 08B5     		push	{r3, lr}
 297              	.LCFI5:
 298              		.cfi_def_cfa_offset 8
 299              		.cfi_offset 3, -8
 300              		.cfi_offset 14, -4
 152:Src/i2c.c     **** 
 153:Src/i2c.c     ****   if(i2cHandle->Instance==I2C2)
 301              		.loc 1 153 0
 302 0002 0368     		ldr	r3, [r0]
 303 0004 114A     		ldr	r2, .L21
 304 0006 9342     		cmp	r3, r2
 305 0008 0BD1     		bne	.L18
 154:Src/i2c.c     ****   {
 155:Src/i2c.c     ****   /* USER CODE BEGIN I2C2_MspDeInit 0 */
 156:Src/i2c.c     **** 
 157:Src/i2c.c     ****   /* USER CODE END I2C2_MspDeInit 0 */
 158:Src/i2c.c     ****     /* Peripheral clock disable */
ARM GAS  C:\Users\shun2\AppData\Local\Temp\cc7CdVh4.s 			page 9


 159:Src/i2c.c     ****     __HAL_RCC_I2C2_CLK_DISABLE();
 306              		.loc 1 159 0
 307 000a 02F5F032 		add	r2, r2, #122880
 308 000e 136C     		ldr	r3, [r2, #64]
 309 0010 23F48003 		bic	r3, r3, #4194304
 310 0014 1364     		str	r3, [r2, #64]
 160:Src/i2c.c     ****   
 161:Src/i2c.c     ****     /**I2C2 GPIO Configuration    
 162:Src/i2c.c     ****     PB10     ------> I2C2_SCL
 163:Src/i2c.c     ****     PB11     ------> I2C2_SDA 
 164:Src/i2c.c     ****     */
 165:Src/i2c.c     ****     HAL_GPIO_DeInit(GPIOB, GPIO_PIN_10|GPIO_PIN_11);
 311              		.loc 1 165 0
 312 0016 4FF44061 		mov	r1, #3072
 313 001a 0D48     		ldr	r0, .L21+4
 314              	.LVL12:
 315 001c FFF7FEFF 		bl	HAL_GPIO_DeInit
 316              	.LVL13:
 317 0020 08BD     		pop	{r3, pc}
 318              	.LVL14:
 319              	.L18:
 166:Src/i2c.c     **** 
 167:Src/i2c.c     ****   /* USER CODE BEGIN I2C2_MspDeInit 1 */
 168:Src/i2c.c     **** 
 169:Src/i2c.c     ****   /* USER CODE END I2C2_MspDeInit 1 */
 170:Src/i2c.c     ****   }
 171:Src/i2c.c     ****   else if(i2cHandle->Instance==I2C3)
 320              		.loc 1 171 0
 321 0022 0C4A     		ldr	r2, .L21+8
 322 0024 9342     		cmp	r3, r2
 323 0026 0FD1     		bne	.L17
 172:Src/i2c.c     ****   {
 173:Src/i2c.c     ****   /* USER CODE BEGIN I2C3_MspDeInit 0 */
 174:Src/i2c.c     **** 
 175:Src/i2c.c     ****   /* USER CODE END I2C3_MspDeInit 0 */
 176:Src/i2c.c     ****     /* Peripheral clock disable */
 177:Src/i2c.c     ****     __HAL_RCC_I2C3_CLK_DISABLE();
 324              		.loc 1 177 0
 325 0028 02F5EE32 		add	r2, r2, #121856
 326 002c 136C     		ldr	r3, [r2, #64]
 327 002e 23F40003 		bic	r3, r3, #8388608
 328 0032 1364     		str	r3, [r2, #64]
 178:Src/i2c.c     ****   
 179:Src/i2c.c     ****     /**I2C3 GPIO Configuration    
 180:Src/i2c.c     ****     PC9     ------> I2C3_SDA
 181:Src/i2c.c     ****     PA8     ------> I2C3_SCL 
 182:Src/i2c.c     ****     */
 183:Src/i2c.c     ****     HAL_GPIO_DeInit(GPIOC, GPIO_PIN_9);
 329              		.loc 1 183 0
 330 0034 4FF40071 		mov	r1, #512
 331 0038 0748     		ldr	r0, .L21+12
 332              	.LVL15:
 333 003a FFF7FEFF 		bl	HAL_GPIO_DeInit
 334              	.LVL16:
 184:Src/i2c.c     **** 
 185:Src/i2c.c     ****     HAL_GPIO_DeInit(GPIOA, GPIO_PIN_8);
 335              		.loc 1 185 0
ARM GAS  C:\Users\shun2\AppData\Local\Temp\cc7CdVh4.s 			page 10


 336 003e 4FF48071 		mov	r1, #256
 337 0042 0648     		ldr	r0, .L21+16
 338 0044 FFF7FEFF 		bl	HAL_GPIO_DeInit
 339              	.LVL17:
 340              	.L17:
 341 0048 08BD     		pop	{r3, pc}
 342              	.L22:
 343 004a 00BF     		.align	2
 344              	.L21:
 345 004c 00580040 		.word	1073764352
 346 0050 00040240 		.word	1073873920
 347 0054 005C0040 		.word	1073765376
 348 0058 00080240 		.word	1073874944
 349 005c 00000240 		.word	1073872896
 350              		.cfi_endproc
 351              	.LFE127:
 353              		.comm	hi2c3,84,4
 354              		.comm	hi2c2,84,4
 355              		.section	.rodata.str1.4,"aMS",%progbits,1
 356              		.align	2
 357              	.LC0:
 358 0000 5372632F 		.ascii	"Src/i2c.c\000"
 358      6932632E 
 358      6300
 359              		.text
 360              	.Letext0:
 361              		.file 2 "c:\\program files (x86)\\gnu tools arm embedded\\5.4 2016q3\\arm-none-eabi\\include\\mach
 362              		.file 3 "c:\\program files (x86)\\gnu tools arm embedded\\5.4 2016q3\\arm-none-eabi\\include\\sys\
 363              		.file 4 "Drivers/CMSIS/Device/ST/STM32F4xx/Include/stm32f429xx.h"
 364              		.file 5 "Drivers/STM32F4xx_HAL_Driver/Inc/stm32f4xx_hal_def.h"
 365              		.file 6 "Drivers/STM32F4xx_HAL_Driver/Inc/stm32f4xx_hal_gpio.h"
 366              		.file 7 "Drivers/STM32F4xx_HAL_Driver/Inc/stm32f4xx_hal_dma.h"
 367              		.file 8 "Drivers/STM32F4xx_HAL_Driver/Inc/stm32f4xx_hal_i2c.h"
 368              		.file 9 "Drivers/CMSIS/Include/core_cm4.h"
 369              		.file 10 "Inc/i2c.h"
ARM GAS  C:\Users\shun2\AppData\Local\Temp\cc7CdVh4.s 			page 11

