ARM GAS  C:\Users\shun2\AppData\Local\Temp\ccpVPaCt.s 			page 1


   1              		.syntax unified
   2              		.cpu cortex-m4
   3              		.eabi_attribute 27, 1
   4              		.eabi_attribute 28, 1
   5              		.fpu fpv4-sp-d16
   6              		.eabi_attribute 20, 1
   7              		.eabi_attribute 21, 1
   8              		.eabi_attribute 23, 3
   9              		.eabi_attribute 24, 1
  10              		.eabi_attribute 25, 1
  11              		.eabi_attribute 26, 1
  12              		.eabi_attribute 30, 1
  13              		.eabi_attribute 34, 1
  14              		.eabi_attribute 18, 4
  15              		.thumb
  16              		.syntax unified
  17              		.file	"stm32f4xx_hal_dma_ex.c"
  18              		.text
  19              	.Ltext0:
  20              		.cfi_sections	.debug_frame
  21              		.section	.text.DMA_MultiBufferSetConfig,"ax",%progbits
  22              		.align	2
  23              		.thumb
  24              		.thumb_func
  26              	DMA_MultiBufferSetConfig:
  27              	.LFB127:
  28              		.file 1 "Drivers/STM32F4xx_HAL_Driver/Src/stm32f4xx_hal_dma_ex.c"
   1:Drivers/STM32F4xx_HAL_Driver/Src/stm32f4xx_hal_dma_ex.c **** /**
   2:Drivers/STM32F4xx_HAL_Driver/Src/stm32f4xx_hal_dma_ex.c ****   ******************************************************************************
   3:Drivers/STM32F4xx_HAL_Driver/Src/stm32f4xx_hal_dma_ex.c ****   * @file    stm32f4xx_hal_dma_ex.c
   4:Drivers/STM32F4xx_HAL_Driver/Src/stm32f4xx_hal_dma_ex.c ****   * @author  MCD Application Team
   5:Drivers/STM32F4xx_HAL_Driver/Src/stm32f4xx_hal_dma_ex.c ****   * @brief   DMA Extension HAL module driver
   6:Drivers/STM32F4xx_HAL_Driver/Src/stm32f4xx_hal_dma_ex.c ****   *         This file provides firmware functions to manage the following 
   7:Drivers/STM32F4xx_HAL_Driver/Src/stm32f4xx_hal_dma_ex.c ****   *         functionalities of the DMA Extension peripheral:
   8:Drivers/STM32F4xx_HAL_Driver/Src/stm32f4xx_hal_dma_ex.c ****   *           + Extended features functions
   9:Drivers/STM32F4xx_HAL_Driver/Src/stm32f4xx_hal_dma_ex.c ****   *
  10:Drivers/STM32F4xx_HAL_Driver/Src/stm32f4xx_hal_dma_ex.c ****   @verbatim
  11:Drivers/STM32F4xx_HAL_Driver/Src/stm32f4xx_hal_dma_ex.c ****   ==============================================================================
  12:Drivers/STM32F4xx_HAL_Driver/Src/stm32f4xx_hal_dma_ex.c ****                         ##### How to use this driver #####
  13:Drivers/STM32F4xx_HAL_Driver/Src/stm32f4xx_hal_dma_ex.c ****   ==============================================================================
  14:Drivers/STM32F4xx_HAL_Driver/Src/stm32f4xx_hal_dma_ex.c ****   [..]
  15:Drivers/STM32F4xx_HAL_Driver/Src/stm32f4xx_hal_dma_ex.c ****   The DMA Extension HAL driver can be used as follows:
  16:Drivers/STM32F4xx_HAL_Driver/Src/stm32f4xx_hal_dma_ex.c ****    (#) Start a multi buffer transfer using the HAL_DMA_MultiBufferStart() function
  17:Drivers/STM32F4xx_HAL_Driver/Src/stm32f4xx_hal_dma_ex.c ****        for polling mode or HAL_DMA_MultiBufferStart_IT() for interrupt mode.
  18:Drivers/STM32F4xx_HAL_Driver/Src/stm32f4xx_hal_dma_ex.c ****                    
  19:Drivers/STM32F4xx_HAL_Driver/Src/stm32f4xx_hal_dma_ex.c ****      -@-  In Memory-to-Memory transfer mode, Multi (Double) Buffer mode is not allowed.
  20:Drivers/STM32F4xx_HAL_Driver/Src/stm32f4xx_hal_dma_ex.c ****      -@-  When Multi (Double) Buffer mode is enabled the, transfer is circular by default.
  21:Drivers/STM32F4xx_HAL_Driver/Src/stm32f4xx_hal_dma_ex.c ****      -@-  In Multi (Double) buffer mode, it is possible to update the base address for 
  22:Drivers/STM32F4xx_HAL_Driver/Src/stm32f4xx_hal_dma_ex.c ****           the AHB memory port on the fly (DMA_SxM0AR or DMA_SxM1AR) when the stream is enabled. 
  23:Drivers/STM32F4xx_HAL_Driver/Src/stm32f4xx_hal_dma_ex.c ****   
  24:Drivers/STM32F4xx_HAL_Driver/Src/stm32f4xx_hal_dma_ex.c ****   @endverbatim
  25:Drivers/STM32F4xx_HAL_Driver/Src/stm32f4xx_hal_dma_ex.c ****   ******************************************************************************
  26:Drivers/STM32F4xx_HAL_Driver/Src/stm32f4xx_hal_dma_ex.c ****   * @attention
  27:Drivers/STM32F4xx_HAL_Driver/Src/stm32f4xx_hal_dma_ex.c ****   *
  28:Drivers/STM32F4xx_HAL_Driver/Src/stm32f4xx_hal_dma_ex.c ****   * <h2><center>&copy; COPYRIGHT(c) 2017 STMicroelectronics</center></h2>
  29:Drivers/STM32F4xx_HAL_Driver/Src/stm32f4xx_hal_dma_ex.c ****   *
  30:Drivers/STM32F4xx_HAL_Driver/Src/stm32f4xx_hal_dma_ex.c ****   * Redistribution and use in source and binary forms, with or without modification,
ARM GAS  C:\Users\shun2\AppData\Local\Temp\ccpVPaCt.s 			page 2


  31:Drivers/STM32F4xx_HAL_Driver/Src/stm32f4xx_hal_dma_ex.c ****   * are permitted provided that the following conditions are met:
  32:Drivers/STM32F4xx_HAL_Driver/Src/stm32f4xx_hal_dma_ex.c ****   *   1. Redistributions of source code must retain the above copyright notice,
  33:Drivers/STM32F4xx_HAL_Driver/Src/stm32f4xx_hal_dma_ex.c ****   *      this list of conditions and the following disclaimer.
  34:Drivers/STM32F4xx_HAL_Driver/Src/stm32f4xx_hal_dma_ex.c ****   *   2. Redistributions in binary form must reproduce the above copyright notice,
  35:Drivers/STM32F4xx_HAL_Driver/Src/stm32f4xx_hal_dma_ex.c ****   *      this list of conditions and the following disclaimer in the documentation
  36:Drivers/STM32F4xx_HAL_Driver/Src/stm32f4xx_hal_dma_ex.c ****   *      and/or other materials provided with the distribution.
  37:Drivers/STM32F4xx_HAL_Driver/Src/stm32f4xx_hal_dma_ex.c ****   *   3. Neither the name of STMicroelectronics nor the names of its contributors
  38:Drivers/STM32F4xx_HAL_Driver/Src/stm32f4xx_hal_dma_ex.c ****   *      may be used to endorse or promote products derived from this software
  39:Drivers/STM32F4xx_HAL_Driver/Src/stm32f4xx_hal_dma_ex.c ****   *      without specific prior written permission.
  40:Drivers/STM32F4xx_HAL_Driver/Src/stm32f4xx_hal_dma_ex.c ****   *
  41:Drivers/STM32F4xx_HAL_Driver/Src/stm32f4xx_hal_dma_ex.c ****   * THIS SOFTWARE IS PROVIDED BY THE COPYRIGHT HOLDERS AND CONTRIBUTORS "AS IS"
  42:Drivers/STM32F4xx_HAL_Driver/Src/stm32f4xx_hal_dma_ex.c ****   * AND ANY EXPRESS OR IMPLIED WARRANTIES, INCLUDING, BUT NOT LIMITED TO, THE
  43:Drivers/STM32F4xx_HAL_Driver/Src/stm32f4xx_hal_dma_ex.c ****   * IMPLIED WARRANTIES OF MERCHANTABILITY AND FITNESS FOR A PARTICULAR PURPOSE ARE
  44:Drivers/STM32F4xx_HAL_Driver/Src/stm32f4xx_hal_dma_ex.c ****   * DISCLAIMED. IN NO EVENT SHALL THE COPYRIGHT HOLDER OR CONTRIBUTORS BE LIABLE
  45:Drivers/STM32F4xx_HAL_Driver/Src/stm32f4xx_hal_dma_ex.c ****   * FOR ANY DIRECT, INDIRECT, INCIDENTAL, SPECIAL, EXEMPLARY, OR CONSEQUENTIAL
  46:Drivers/STM32F4xx_HAL_Driver/Src/stm32f4xx_hal_dma_ex.c ****   * DAMAGES (INCLUDING, BUT NOT LIMITED TO, PROCUREMENT OF SUBSTITUTE GOODS OR
  47:Drivers/STM32F4xx_HAL_Driver/Src/stm32f4xx_hal_dma_ex.c ****   * SERVICES; LOSS OF USE, DATA, OR PROFITS; OR BUSINESS INTERRUPTION) HOWEVER
  48:Drivers/STM32F4xx_HAL_Driver/Src/stm32f4xx_hal_dma_ex.c ****   * CAUSED AND ON ANY THEORY OF LIABILITY, WHETHER IN CONTRACT, STRICT LIABILITY,
  49:Drivers/STM32F4xx_HAL_Driver/Src/stm32f4xx_hal_dma_ex.c ****   * OR TORT (INCLUDING NEGLIGENCE OR OTHERWISE) ARISING IN ANY WAY OUT OF THE USE
  50:Drivers/STM32F4xx_HAL_Driver/Src/stm32f4xx_hal_dma_ex.c ****   * OF THIS SOFTWARE, EVEN IF ADVISED OF THE POSSIBILITY OF SUCH DAMAGE.
  51:Drivers/STM32F4xx_HAL_Driver/Src/stm32f4xx_hal_dma_ex.c ****   *
  52:Drivers/STM32F4xx_HAL_Driver/Src/stm32f4xx_hal_dma_ex.c ****   ******************************************************************************
  53:Drivers/STM32F4xx_HAL_Driver/Src/stm32f4xx_hal_dma_ex.c ****   */
  54:Drivers/STM32F4xx_HAL_Driver/Src/stm32f4xx_hal_dma_ex.c **** 
  55:Drivers/STM32F4xx_HAL_Driver/Src/stm32f4xx_hal_dma_ex.c **** /* Includes ------------------------------------------------------------------*/
  56:Drivers/STM32F4xx_HAL_Driver/Src/stm32f4xx_hal_dma_ex.c **** #include "stm32f4xx_hal.h"
  57:Drivers/STM32F4xx_HAL_Driver/Src/stm32f4xx_hal_dma_ex.c **** 
  58:Drivers/STM32F4xx_HAL_Driver/Src/stm32f4xx_hal_dma_ex.c **** /** @addtogroup STM32F4xx_HAL_Driver
  59:Drivers/STM32F4xx_HAL_Driver/Src/stm32f4xx_hal_dma_ex.c ****   * @{
  60:Drivers/STM32F4xx_HAL_Driver/Src/stm32f4xx_hal_dma_ex.c ****   */
  61:Drivers/STM32F4xx_HAL_Driver/Src/stm32f4xx_hal_dma_ex.c **** 
  62:Drivers/STM32F4xx_HAL_Driver/Src/stm32f4xx_hal_dma_ex.c **** /** @defgroup DMAEx DMAEx
  63:Drivers/STM32F4xx_HAL_Driver/Src/stm32f4xx_hal_dma_ex.c ****   * @brief DMA Extended HAL module driver
  64:Drivers/STM32F4xx_HAL_Driver/Src/stm32f4xx_hal_dma_ex.c ****   * @{
  65:Drivers/STM32F4xx_HAL_Driver/Src/stm32f4xx_hal_dma_ex.c ****   */
  66:Drivers/STM32F4xx_HAL_Driver/Src/stm32f4xx_hal_dma_ex.c **** 
  67:Drivers/STM32F4xx_HAL_Driver/Src/stm32f4xx_hal_dma_ex.c **** #ifdef HAL_DMA_MODULE_ENABLED
  68:Drivers/STM32F4xx_HAL_Driver/Src/stm32f4xx_hal_dma_ex.c **** 
  69:Drivers/STM32F4xx_HAL_Driver/Src/stm32f4xx_hal_dma_ex.c **** /* Private types -------------------------------------------------------------*/
  70:Drivers/STM32F4xx_HAL_Driver/Src/stm32f4xx_hal_dma_ex.c **** /* Private variables ---------------------------------------------------------*/
  71:Drivers/STM32F4xx_HAL_Driver/Src/stm32f4xx_hal_dma_ex.c **** /* Private Constants ---------------------------------------------------------*/
  72:Drivers/STM32F4xx_HAL_Driver/Src/stm32f4xx_hal_dma_ex.c **** /* Private macros ------------------------------------------------------------*/
  73:Drivers/STM32F4xx_HAL_Driver/Src/stm32f4xx_hal_dma_ex.c **** /* Private functions ---------------------------------------------------------*/
  74:Drivers/STM32F4xx_HAL_Driver/Src/stm32f4xx_hal_dma_ex.c **** /** @addtogroup DMAEx_Private_Functions
  75:Drivers/STM32F4xx_HAL_Driver/Src/stm32f4xx_hal_dma_ex.c ****   * @{
  76:Drivers/STM32F4xx_HAL_Driver/Src/stm32f4xx_hal_dma_ex.c ****   */
  77:Drivers/STM32F4xx_HAL_Driver/Src/stm32f4xx_hal_dma_ex.c **** static void DMA_MultiBufferSetConfig(DMA_HandleTypeDef *hdma, uint32_t SrcAddress, uint32_t DstAddr
  78:Drivers/STM32F4xx_HAL_Driver/Src/stm32f4xx_hal_dma_ex.c **** /**
  79:Drivers/STM32F4xx_HAL_Driver/Src/stm32f4xx_hal_dma_ex.c ****   * @}
  80:Drivers/STM32F4xx_HAL_Driver/Src/stm32f4xx_hal_dma_ex.c ****   */
  81:Drivers/STM32F4xx_HAL_Driver/Src/stm32f4xx_hal_dma_ex.c **** 
  82:Drivers/STM32F4xx_HAL_Driver/Src/stm32f4xx_hal_dma_ex.c **** /* Exported functions ---------------------------------------------------------*/
  83:Drivers/STM32F4xx_HAL_Driver/Src/stm32f4xx_hal_dma_ex.c **** 
  84:Drivers/STM32F4xx_HAL_Driver/Src/stm32f4xx_hal_dma_ex.c **** /** @addtogroup DMAEx_Exported_Functions
  85:Drivers/STM32F4xx_HAL_Driver/Src/stm32f4xx_hal_dma_ex.c ****   * @{
  86:Drivers/STM32F4xx_HAL_Driver/Src/stm32f4xx_hal_dma_ex.c ****   */
  87:Drivers/STM32F4xx_HAL_Driver/Src/stm32f4xx_hal_dma_ex.c **** 
ARM GAS  C:\Users\shun2\AppData\Local\Temp\ccpVPaCt.s 			page 3


  88:Drivers/STM32F4xx_HAL_Driver/Src/stm32f4xx_hal_dma_ex.c **** 
  89:Drivers/STM32F4xx_HAL_Driver/Src/stm32f4xx_hal_dma_ex.c **** /** @addtogroup DMAEx_Exported_Functions_Group1
  90:Drivers/STM32F4xx_HAL_Driver/Src/stm32f4xx_hal_dma_ex.c ****   *
  91:Drivers/STM32F4xx_HAL_Driver/Src/stm32f4xx_hal_dma_ex.c **** @verbatim   
  92:Drivers/STM32F4xx_HAL_Driver/Src/stm32f4xx_hal_dma_ex.c ****  ===============================================================================
  93:Drivers/STM32F4xx_HAL_Driver/Src/stm32f4xx_hal_dma_ex.c ****                 #####  Extended features functions  #####
  94:Drivers/STM32F4xx_HAL_Driver/Src/stm32f4xx_hal_dma_ex.c ****  ===============================================================================  
  95:Drivers/STM32F4xx_HAL_Driver/Src/stm32f4xx_hal_dma_ex.c ****     [..]  This section provides functions allowing to:
  96:Drivers/STM32F4xx_HAL_Driver/Src/stm32f4xx_hal_dma_ex.c ****       (+) Configure the source, destination address and data length and 
  97:Drivers/STM32F4xx_HAL_Driver/Src/stm32f4xx_hal_dma_ex.c ****           Start MultiBuffer DMA transfer
  98:Drivers/STM32F4xx_HAL_Driver/Src/stm32f4xx_hal_dma_ex.c ****       (+) Configure the source, destination address and data length and 
  99:Drivers/STM32F4xx_HAL_Driver/Src/stm32f4xx_hal_dma_ex.c ****           Start MultiBuffer DMA transfer with interrupt
 100:Drivers/STM32F4xx_HAL_Driver/Src/stm32f4xx_hal_dma_ex.c ****       (+) Change on the fly the memory0 or memory1 address.
 101:Drivers/STM32F4xx_HAL_Driver/Src/stm32f4xx_hal_dma_ex.c ****       
 102:Drivers/STM32F4xx_HAL_Driver/Src/stm32f4xx_hal_dma_ex.c **** @endverbatim
 103:Drivers/STM32F4xx_HAL_Driver/Src/stm32f4xx_hal_dma_ex.c ****   * @{
 104:Drivers/STM32F4xx_HAL_Driver/Src/stm32f4xx_hal_dma_ex.c ****   */
 105:Drivers/STM32F4xx_HAL_Driver/Src/stm32f4xx_hal_dma_ex.c **** 
 106:Drivers/STM32F4xx_HAL_Driver/Src/stm32f4xx_hal_dma_ex.c **** 
 107:Drivers/STM32F4xx_HAL_Driver/Src/stm32f4xx_hal_dma_ex.c **** /**
 108:Drivers/STM32F4xx_HAL_Driver/Src/stm32f4xx_hal_dma_ex.c ****   * @brief  Starts the multi_buffer DMA Transfer.
 109:Drivers/STM32F4xx_HAL_Driver/Src/stm32f4xx_hal_dma_ex.c ****   * @param  hdma       pointer to a DMA_HandleTypeDef structure that contains
 110:Drivers/STM32F4xx_HAL_Driver/Src/stm32f4xx_hal_dma_ex.c ****   *                     the configuration information for the specified DMA Stream.  
 111:Drivers/STM32F4xx_HAL_Driver/Src/stm32f4xx_hal_dma_ex.c ****   * @param  SrcAddress The source memory Buffer address
 112:Drivers/STM32F4xx_HAL_Driver/Src/stm32f4xx_hal_dma_ex.c ****   * @param  DstAddress The destination memory Buffer address
 113:Drivers/STM32F4xx_HAL_Driver/Src/stm32f4xx_hal_dma_ex.c ****   * @param  SecondMemAddress The second memory Buffer address in case of multi buffer Transfer  
 114:Drivers/STM32F4xx_HAL_Driver/Src/stm32f4xx_hal_dma_ex.c ****   * @param  DataLength The length of data to be transferred from source to destination
 115:Drivers/STM32F4xx_HAL_Driver/Src/stm32f4xx_hal_dma_ex.c ****   * @retval HAL status
 116:Drivers/STM32F4xx_HAL_Driver/Src/stm32f4xx_hal_dma_ex.c ****   */
 117:Drivers/STM32F4xx_HAL_Driver/Src/stm32f4xx_hal_dma_ex.c **** HAL_StatusTypeDef HAL_DMAEx_MultiBufferStart(DMA_HandleTypeDef *hdma, uint32_t SrcAddress, uint32_t
 118:Drivers/STM32F4xx_HAL_Driver/Src/stm32f4xx_hal_dma_ex.c **** {
 119:Drivers/STM32F4xx_HAL_Driver/Src/stm32f4xx_hal_dma_ex.c ****   HAL_StatusTypeDef status = HAL_OK;
 120:Drivers/STM32F4xx_HAL_Driver/Src/stm32f4xx_hal_dma_ex.c ****   
 121:Drivers/STM32F4xx_HAL_Driver/Src/stm32f4xx_hal_dma_ex.c ****   /* Check the parameters */
 122:Drivers/STM32F4xx_HAL_Driver/Src/stm32f4xx_hal_dma_ex.c ****   assert_param(IS_DMA_BUFFER_SIZE(DataLength));
 123:Drivers/STM32F4xx_HAL_Driver/Src/stm32f4xx_hal_dma_ex.c ****   
 124:Drivers/STM32F4xx_HAL_Driver/Src/stm32f4xx_hal_dma_ex.c ****   /* Memory-to-memory transfer not supported in double buffering mode */
 125:Drivers/STM32F4xx_HAL_Driver/Src/stm32f4xx_hal_dma_ex.c ****   if (hdma->Init.Direction == DMA_MEMORY_TO_MEMORY)
 126:Drivers/STM32F4xx_HAL_Driver/Src/stm32f4xx_hal_dma_ex.c ****   {
 127:Drivers/STM32F4xx_HAL_Driver/Src/stm32f4xx_hal_dma_ex.c ****     hdma->ErrorCode = HAL_DMA_ERROR_NOT_SUPPORTED;
 128:Drivers/STM32F4xx_HAL_Driver/Src/stm32f4xx_hal_dma_ex.c ****     status = HAL_ERROR;
 129:Drivers/STM32F4xx_HAL_Driver/Src/stm32f4xx_hal_dma_ex.c ****   }
 130:Drivers/STM32F4xx_HAL_Driver/Src/stm32f4xx_hal_dma_ex.c ****   else
 131:Drivers/STM32F4xx_HAL_Driver/Src/stm32f4xx_hal_dma_ex.c ****   {
 132:Drivers/STM32F4xx_HAL_Driver/Src/stm32f4xx_hal_dma_ex.c ****     /* Process Locked */
 133:Drivers/STM32F4xx_HAL_Driver/Src/stm32f4xx_hal_dma_ex.c ****     __HAL_LOCK(hdma);
 134:Drivers/STM32F4xx_HAL_Driver/Src/stm32f4xx_hal_dma_ex.c ****     
 135:Drivers/STM32F4xx_HAL_Driver/Src/stm32f4xx_hal_dma_ex.c ****     if(HAL_DMA_STATE_READY == hdma->State)
 136:Drivers/STM32F4xx_HAL_Driver/Src/stm32f4xx_hal_dma_ex.c ****     {
 137:Drivers/STM32F4xx_HAL_Driver/Src/stm32f4xx_hal_dma_ex.c ****       /* Change DMA peripheral state */
 138:Drivers/STM32F4xx_HAL_Driver/Src/stm32f4xx_hal_dma_ex.c ****       hdma->State = HAL_DMA_STATE_BUSY; 
 139:Drivers/STM32F4xx_HAL_Driver/Src/stm32f4xx_hal_dma_ex.c ****       
 140:Drivers/STM32F4xx_HAL_Driver/Src/stm32f4xx_hal_dma_ex.c ****       /* Enable the double buffer mode */
 141:Drivers/STM32F4xx_HAL_Driver/Src/stm32f4xx_hal_dma_ex.c ****       hdma->Instance->CR |= (uint32_t)DMA_SxCR_DBM;
 142:Drivers/STM32F4xx_HAL_Driver/Src/stm32f4xx_hal_dma_ex.c ****       
 143:Drivers/STM32F4xx_HAL_Driver/Src/stm32f4xx_hal_dma_ex.c ****       /* Configure DMA Stream destination address */
 144:Drivers/STM32F4xx_HAL_Driver/Src/stm32f4xx_hal_dma_ex.c ****       hdma->Instance->M1AR = SecondMemAddress;
ARM GAS  C:\Users\shun2\AppData\Local\Temp\ccpVPaCt.s 			page 4


 145:Drivers/STM32F4xx_HAL_Driver/Src/stm32f4xx_hal_dma_ex.c ****       
 146:Drivers/STM32F4xx_HAL_Driver/Src/stm32f4xx_hal_dma_ex.c ****       /* Configure the source, destination address and the data length */
 147:Drivers/STM32F4xx_HAL_Driver/Src/stm32f4xx_hal_dma_ex.c ****       DMA_MultiBufferSetConfig(hdma, SrcAddress, DstAddress, DataLength);
 148:Drivers/STM32F4xx_HAL_Driver/Src/stm32f4xx_hal_dma_ex.c ****       
 149:Drivers/STM32F4xx_HAL_Driver/Src/stm32f4xx_hal_dma_ex.c ****       /* Enable the peripheral */
 150:Drivers/STM32F4xx_HAL_Driver/Src/stm32f4xx_hal_dma_ex.c ****       __HAL_DMA_ENABLE(hdma);
 151:Drivers/STM32F4xx_HAL_Driver/Src/stm32f4xx_hal_dma_ex.c ****     }
 152:Drivers/STM32F4xx_HAL_Driver/Src/stm32f4xx_hal_dma_ex.c ****     else
 153:Drivers/STM32F4xx_HAL_Driver/Src/stm32f4xx_hal_dma_ex.c ****     {
 154:Drivers/STM32F4xx_HAL_Driver/Src/stm32f4xx_hal_dma_ex.c ****       /* Return error status */
 155:Drivers/STM32F4xx_HAL_Driver/Src/stm32f4xx_hal_dma_ex.c ****       status = HAL_BUSY;
 156:Drivers/STM32F4xx_HAL_Driver/Src/stm32f4xx_hal_dma_ex.c ****     }
 157:Drivers/STM32F4xx_HAL_Driver/Src/stm32f4xx_hal_dma_ex.c ****   }
 158:Drivers/STM32F4xx_HAL_Driver/Src/stm32f4xx_hal_dma_ex.c ****   return status;
 159:Drivers/STM32F4xx_HAL_Driver/Src/stm32f4xx_hal_dma_ex.c **** }
 160:Drivers/STM32F4xx_HAL_Driver/Src/stm32f4xx_hal_dma_ex.c **** 
 161:Drivers/STM32F4xx_HAL_Driver/Src/stm32f4xx_hal_dma_ex.c **** /**
 162:Drivers/STM32F4xx_HAL_Driver/Src/stm32f4xx_hal_dma_ex.c ****   * @brief  Starts the multi_buffer DMA Transfer with interrupt enabled.
 163:Drivers/STM32F4xx_HAL_Driver/Src/stm32f4xx_hal_dma_ex.c ****   * @param  hdma       pointer to a DMA_HandleTypeDef structure that contains
 164:Drivers/STM32F4xx_HAL_Driver/Src/stm32f4xx_hal_dma_ex.c ****   *                     the configuration information for the specified DMA Stream.  
 165:Drivers/STM32F4xx_HAL_Driver/Src/stm32f4xx_hal_dma_ex.c ****   * @param  SrcAddress The source memory Buffer address
 166:Drivers/STM32F4xx_HAL_Driver/Src/stm32f4xx_hal_dma_ex.c ****   * @param  DstAddress The destination memory Buffer address
 167:Drivers/STM32F4xx_HAL_Driver/Src/stm32f4xx_hal_dma_ex.c ****   * @param  SecondMemAddress The second memory Buffer address in case of multi buffer Transfer  
 168:Drivers/STM32F4xx_HAL_Driver/Src/stm32f4xx_hal_dma_ex.c ****   * @param  DataLength The length of data to be transferred from source to destination
 169:Drivers/STM32F4xx_HAL_Driver/Src/stm32f4xx_hal_dma_ex.c ****   * @retval HAL status
 170:Drivers/STM32F4xx_HAL_Driver/Src/stm32f4xx_hal_dma_ex.c ****   */
 171:Drivers/STM32F4xx_HAL_Driver/Src/stm32f4xx_hal_dma_ex.c **** HAL_StatusTypeDef HAL_DMAEx_MultiBufferStart_IT(DMA_HandleTypeDef *hdma, uint32_t SrcAddress, uint3
 172:Drivers/STM32F4xx_HAL_Driver/Src/stm32f4xx_hal_dma_ex.c **** {
 173:Drivers/STM32F4xx_HAL_Driver/Src/stm32f4xx_hal_dma_ex.c ****   HAL_StatusTypeDef status = HAL_OK;
 174:Drivers/STM32F4xx_HAL_Driver/Src/stm32f4xx_hal_dma_ex.c ****   
 175:Drivers/STM32F4xx_HAL_Driver/Src/stm32f4xx_hal_dma_ex.c ****   /* Check the parameters */
 176:Drivers/STM32F4xx_HAL_Driver/Src/stm32f4xx_hal_dma_ex.c ****   assert_param(IS_DMA_BUFFER_SIZE(DataLength));
 177:Drivers/STM32F4xx_HAL_Driver/Src/stm32f4xx_hal_dma_ex.c ****   
 178:Drivers/STM32F4xx_HAL_Driver/Src/stm32f4xx_hal_dma_ex.c ****   /* Memory-to-memory transfer not supported in double buffering mode */
 179:Drivers/STM32F4xx_HAL_Driver/Src/stm32f4xx_hal_dma_ex.c ****   if (hdma->Init.Direction == DMA_MEMORY_TO_MEMORY)
 180:Drivers/STM32F4xx_HAL_Driver/Src/stm32f4xx_hal_dma_ex.c ****   {
 181:Drivers/STM32F4xx_HAL_Driver/Src/stm32f4xx_hal_dma_ex.c ****     hdma->ErrorCode = HAL_DMA_ERROR_NOT_SUPPORTED;
 182:Drivers/STM32F4xx_HAL_Driver/Src/stm32f4xx_hal_dma_ex.c ****     return HAL_ERROR;
 183:Drivers/STM32F4xx_HAL_Driver/Src/stm32f4xx_hal_dma_ex.c ****   }
 184:Drivers/STM32F4xx_HAL_Driver/Src/stm32f4xx_hal_dma_ex.c ****   
 185:Drivers/STM32F4xx_HAL_Driver/Src/stm32f4xx_hal_dma_ex.c ****   /* Check callback functions */
 186:Drivers/STM32F4xx_HAL_Driver/Src/stm32f4xx_hal_dma_ex.c ****   if ((NULL == hdma->XferCpltCallback) || (NULL == hdma->XferM1CpltCallback) || (NULL == hdma->Xfer
 187:Drivers/STM32F4xx_HAL_Driver/Src/stm32f4xx_hal_dma_ex.c ****   {
 188:Drivers/STM32F4xx_HAL_Driver/Src/stm32f4xx_hal_dma_ex.c ****     hdma->ErrorCode = HAL_DMA_ERROR_PARAM;
 189:Drivers/STM32F4xx_HAL_Driver/Src/stm32f4xx_hal_dma_ex.c ****     return HAL_ERROR;
 190:Drivers/STM32F4xx_HAL_Driver/Src/stm32f4xx_hal_dma_ex.c ****   }
 191:Drivers/STM32F4xx_HAL_Driver/Src/stm32f4xx_hal_dma_ex.c ****   
 192:Drivers/STM32F4xx_HAL_Driver/Src/stm32f4xx_hal_dma_ex.c ****   /* Process locked */
 193:Drivers/STM32F4xx_HAL_Driver/Src/stm32f4xx_hal_dma_ex.c ****   __HAL_LOCK(hdma);
 194:Drivers/STM32F4xx_HAL_Driver/Src/stm32f4xx_hal_dma_ex.c ****   
 195:Drivers/STM32F4xx_HAL_Driver/Src/stm32f4xx_hal_dma_ex.c ****   if(HAL_DMA_STATE_READY == hdma->State)
 196:Drivers/STM32F4xx_HAL_Driver/Src/stm32f4xx_hal_dma_ex.c ****   {
 197:Drivers/STM32F4xx_HAL_Driver/Src/stm32f4xx_hal_dma_ex.c ****     /* Change DMA peripheral state */
 198:Drivers/STM32F4xx_HAL_Driver/Src/stm32f4xx_hal_dma_ex.c ****     hdma->State = HAL_DMA_STATE_BUSY;
 199:Drivers/STM32F4xx_HAL_Driver/Src/stm32f4xx_hal_dma_ex.c ****     
 200:Drivers/STM32F4xx_HAL_Driver/Src/stm32f4xx_hal_dma_ex.c ****     /* Initialize the error code */
 201:Drivers/STM32F4xx_HAL_Driver/Src/stm32f4xx_hal_dma_ex.c ****     hdma->ErrorCode = HAL_DMA_ERROR_NONE;
ARM GAS  C:\Users\shun2\AppData\Local\Temp\ccpVPaCt.s 			page 5


 202:Drivers/STM32F4xx_HAL_Driver/Src/stm32f4xx_hal_dma_ex.c ****     
 203:Drivers/STM32F4xx_HAL_Driver/Src/stm32f4xx_hal_dma_ex.c ****     /* Enable the Double buffer mode */
 204:Drivers/STM32F4xx_HAL_Driver/Src/stm32f4xx_hal_dma_ex.c ****     hdma->Instance->CR |= (uint32_t)DMA_SxCR_DBM;
 205:Drivers/STM32F4xx_HAL_Driver/Src/stm32f4xx_hal_dma_ex.c ****     
 206:Drivers/STM32F4xx_HAL_Driver/Src/stm32f4xx_hal_dma_ex.c ****     /* Configure DMA Stream destination address */
 207:Drivers/STM32F4xx_HAL_Driver/Src/stm32f4xx_hal_dma_ex.c ****     hdma->Instance->M1AR = SecondMemAddress;
 208:Drivers/STM32F4xx_HAL_Driver/Src/stm32f4xx_hal_dma_ex.c ****     
 209:Drivers/STM32F4xx_HAL_Driver/Src/stm32f4xx_hal_dma_ex.c ****     /* Configure the source, destination address and the data length */
 210:Drivers/STM32F4xx_HAL_Driver/Src/stm32f4xx_hal_dma_ex.c ****     DMA_MultiBufferSetConfig(hdma, SrcAddress, DstAddress, DataLength); 
 211:Drivers/STM32F4xx_HAL_Driver/Src/stm32f4xx_hal_dma_ex.c ****     
 212:Drivers/STM32F4xx_HAL_Driver/Src/stm32f4xx_hal_dma_ex.c ****     /* Clear all flags */
 213:Drivers/STM32F4xx_HAL_Driver/Src/stm32f4xx_hal_dma_ex.c ****     __HAL_DMA_CLEAR_FLAG (hdma, __HAL_DMA_GET_TC_FLAG_INDEX(hdma));
 214:Drivers/STM32F4xx_HAL_Driver/Src/stm32f4xx_hal_dma_ex.c ****     __HAL_DMA_CLEAR_FLAG (hdma, __HAL_DMA_GET_HT_FLAG_INDEX(hdma));
 215:Drivers/STM32F4xx_HAL_Driver/Src/stm32f4xx_hal_dma_ex.c ****     __HAL_DMA_CLEAR_FLAG (hdma, __HAL_DMA_GET_TE_FLAG_INDEX(hdma));
 216:Drivers/STM32F4xx_HAL_Driver/Src/stm32f4xx_hal_dma_ex.c ****     __HAL_DMA_CLEAR_FLAG (hdma, __HAL_DMA_GET_DME_FLAG_INDEX(hdma));
 217:Drivers/STM32F4xx_HAL_Driver/Src/stm32f4xx_hal_dma_ex.c ****     __HAL_DMA_CLEAR_FLAG (hdma, __HAL_DMA_GET_FE_FLAG_INDEX(hdma));
 218:Drivers/STM32F4xx_HAL_Driver/Src/stm32f4xx_hal_dma_ex.c **** 
 219:Drivers/STM32F4xx_HAL_Driver/Src/stm32f4xx_hal_dma_ex.c ****     /* Enable Common interrupts*/
 220:Drivers/STM32F4xx_HAL_Driver/Src/stm32f4xx_hal_dma_ex.c ****     hdma->Instance->CR  |= DMA_IT_TC | DMA_IT_TE | DMA_IT_DME;
 221:Drivers/STM32F4xx_HAL_Driver/Src/stm32f4xx_hal_dma_ex.c ****     hdma->Instance->FCR |= DMA_IT_FE;
 222:Drivers/STM32F4xx_HAL_Driver/Src/stm32f4xx_hal_dma_ex.c ****     
 223:Drivers/STM32F4xx_HAL_Driver/Src/stm32f4xx_hal_dma_ex.c ****     if((hdma->XferHalfCpltCallback != NULL) || (hdma->XferM1HalfCpltCallback != NULL))
 224:Drivers/STM32F4xx_HAL_Driver/Src/stm32f4xx_hal_dma_ex.c ****     {
 225:Drivers/STM32F4xx_HAL_Driver/Src/stm32f4xx_hal_dma_ex.c ****       hdma->Instance->CR  |= DMA_IT_HT;
 226:Drivers/STM32F4xx_HAL_Driver/Src/stm32f4xx_hal_dma_ex.c ****     }
 227:Drivers/STM32F4xx_HAL_Driver/Src/stm32f4xx_hal_dma_ex.c ****     
 228:Drivers/STM32F4xx_HAL_Driver/Src/stm32f4xx_hal_dma_ex.c ****     /* Enable the peripheral */
 229:Drivers/STM32F4xx_HAL_Driver/Src/stm32f4xx_hal_dma_ex.c ****     __HAL_DMA_ENABLE(hdma); 
 230:Drivers/STM32F4xx_HAL_Driver/Src/stm32f4xx_hal_dma_ex.c ****   }
 231:Drivers/STM32F4xx_HAL_Driver/Src/stm32f4xx_hal_dma_ex.c ****   else
 232:Drivers/STM32F4xx_HAL_Driver/Src/stm32f4xx_hal_dma_ex.c ****   {     
 233:Drivers/STM32F4xx_HAL_Driver/Src/stm32f4xx_hal_dma_ex.c ****     /* Process unlocked */
 234:Drivers/STM32F4xx_HAL_Driver/Src/stm32f4xx_hal_dma_ex.c ****     __HAL_UNLOCK(hdma);	  
 235:Drivers/STM32F4xx_HAL_Driver/Src/stm32f4xx_hal_dma_ex.c ****     
 236:Drivers/STM32F4xx_HAL_Driver/Src/stm32f4xx_hal_dma_ex.c ****     /* Return error status */
 237:Drivers/STM32F4xx_HAL_Driver/Src/stm32f4xx_hal_dma_ex.c ****     status = HAL_BUSY;
 238:Drivers/STM32F4xx_HAL_Driver/Src/stm32f4xx_hal_dma_ex.c ****   }  
 239:Drivers/STM32F4xx_HAL_Driver/Src/stm32f4xx_hal_dma_ex.c ****   return status; 
 240:Drivers/STM32F4xx_HAL_Driver/Src/stm32f4xx_hal_dma_ex.c **** }
 241:Drivers/STM32F4xx_HAL_Driver/Src/stm32f4xx_hal_dma_ex.c **** 
 242:Drivers/STM32F4xx_HAL_Driver/Src/stm32f4xx_hal_dma_ex.c **** /**
 243:Drivers/STM32F4xx_HAL_Driver/Src/stm32f4xx_hal_dma_ex.c ****   * @brief  Change the memory0 or memory1 address on the fly.
 244:Drivers/STM32F4xx_HAL_Driver/Src/stm32f4xx_hal_dma_ex.c ****   * @param  hdma       pointer to a DMA_HandleTypeDef structure that contains
 245:Drivers/STM32F4xx_HAL_Driver/Src/stm32f4xx_hal_dma_ex.c ****   *                     the configuration information for the specified DMA Stream.  
 246:Drivers/STM32F4xx_HAL_Driver/Src/stm32f4xx_hal_dma_ex.c ****   * @param  Address    The new address
 247:Drivers/STM32F4xx_HAL_Driver/Src/stm32f4xx_hal_dma_ex.c ****   * @param  memory     the memory to be changed, This parameter can be one of 
 248:Drivers/STM32F4xx_HAL_Driver/Src/stm32f4xx_hal_dma_ex.c ****   *                     the following values:
 249:Drivers/STM32F4xx_HAL_Driver/Src/stm32f4xx_hal_dma_ex.c ****   *                      MEMORY0 /
 250:Drivers/STM32F4xx_HAL_Driver/Src/stm32f4xx_hal_dma_ex.c ****   *                      MEMORY1
 251:Drivers/STM32F4xx_HAL_Driver/Src/stm32f4xx_hal_dma_ex.c ****   * @note   The MEMORY0 address can be changed only when the current transfer use
 252:Drivers/STM32F4xx_HAL_Driver/Src/stm32f4xx_hal_dma_ex.c ****   *         MEMORY1 and the MEMORY1 address can be changed only when the current 
 253:Drivers/STM32F4xx_HAL_Driver/Src/stm32f4xx_hal_dma_ex.c ****   *         transfer use MEMORY0.
 254:Drivers/STM32F4xx_HAL_Driver/Src/stm32f4xx_hal_dma_ex.c ****   * @retval HAL status
 255:Drivers/STM32F4xx_HAL_Driver/Src/stm32f4xx_hal_dma_ex.c ****   */
 256:Drivers/STM32F4xx_HAL_Driver/Src/stm32f4xx_hal_dma_ex.c **** HAL_StatusTypeDef HAL_DMAEx_ChangeMemory(DMA_HandleTypeDef *hdma, uint32_t Address, HAL_DMA_MemoryT
 257:Drivers/STM32F4xx_HAL_Driver/Src/stm32f4xx_hal_dma_ex.c **** {
 258:Drivers/STM32F4xx_HAL_Driver/Src/stm32f4xx_hal_dma_ex.c ****   if(memory == MEMORY0)
ARM GAS  C:\Users\shun2\AppData\Local\Temp\ccpVPaCt.s 			page 6


 259:Drivers/STM32F4xx_HAL_Driver/Src/stm32f4xx_hal_dma_ex.c ****   {
 260:Drivers/STM32F4xx_HAL_Driver/Src/stm32f4xx_hal_dma_ex.c ****     /* change the memory0 address */
 261:Drivers/STM32F4xx_HAL_Driver/Src/stm32f4xx_hal_dma_ex.c ****     hdma->Instance->M0AR = Address;
 262:Drivers/STM32F4xx_HAL_Driver/Src/stm32f4xx_hal_dma_ex.c ****   }
 263:Drivers/STM32F4xx_HAL_Driver/Src/stm32f4xx_hal_dma_ex.c ****   else
 264:Drivers/STM32F4xx_HAL_Driver/Src/stm32f4xx_hal_dma_ex.c ****   {
 265:Drivers/STM32F4xx_HAL_Driver/Src/stm32f4xx_hal_dma_ex.c ****     /* change the memory1 address */
 266:Drivers/STM32F4xx_HAL_Driver/Src/stm32f4xx_hal_dma_ex.c ****     hdma->Instance->M1AR = Address;
 267:Drivers/STM32F4xx_HAL_Driver/Src/stm32f4xx_hal_dma_ex.c ****   }
 268:Drivers/STM32F4xx_HAL_Driver/Src/stm32f4xx_hal_dma_ex.c **** 
 269:Drivers/STM32F4xx_HAL_Driver/Src/stm32f4xx_hal_dma_ex.c ****   return HAL_OK;
 270:Drivers/STM32F4xx_HAL_Driver/Src/stm32f4xx_hal_dma_ex.c **** }
 271:Drivers/STM32F4xx_HAL_Driver/Src/stm32f4xx_hal_dma_ex.c **** 
 272:Drivers/STM32F4xx_HAL_Driver/Src/stm32f4xx_hal_dma_ex.c **** /**
 273:Drivers/STM32F4xx_HAL_Driver/Src/stm32f4xx_hal_dma_ex.c ****   * @}
 274:Drivers/STM32F4xx_HAL_Driver/Src/stm32f4xx_hal_dma_ex.c ****   */
 275:Drivers/STM32F4xx_HAL_Driver/Src/stm32f4xx_hal_dma_ex.c **** 
 276:Drivers/STM32F4xx_HAL_Driver/Src/stm32f4xx_hal_dma_ex.c **** /**
 277:Drivers/STM32F4xx_HAL_Driver/Src/stm32f4xx_hal_dma_ex.c ****   * @}
 278:Drivers/STM32F4xx_HAL_Driver/Src/stm32f4xx_hal_dma_ex.c ****   */
 279:Drivers/STM32F4xx_HAL_Driver/Src/stm32f4xx_hal_dma_ex.c **** 
 280:Drivers/STM32F4xx_HAL_Driver/Src/stm32f4xx_hal_dma_ex.c **** /** @addtogroup DMAEx_Private_Functions
 281:Drivers/STM32F4xx_HAL_Driver/Src/stm32f4xx_hal_dma_ex.c ****   * @{
 282:Drivers/STM32F4xx_HAL_Driver/Src/stm32f4xx_hal_dma_ex.c ****   */
 283:Drivers/STM32F4xx_HAL_Driver/Src/stm32f4xx_hal_dma_ex.c **** 
 284:Drivers/STM32F4xx_HAL_Driver/Src/stm32f4xx_hal_dma_ex.c **** /**
 285:Drivers/STM32F4xx_HAL_Driver/Src/stm32f4xx_hal_dma_ex.c ****   * @brief  Set the DMA Transfer parameter.
 286:Drivers/STM32F4xx_HAL_Driver/Src/stm32f4xx_hal_dma_ex.c ****   * @param  hdma       pointer to a DMA_HandleTypeDef structure that contains
 287:Drivers/STM32F4xx_HAL_Driver/Src/stm32f4xx_hal_dma_ex.c ****   *                     the configuration information for the specified DMA Stream.  
 288:Drivers/STM32F4xx_HAL_Driver/Src/stm32f4xx_hal_dma_ex.c ****   * @param  SrcAddress The source memory Buffer address
 289:Drivers/STM32F4xx_HAL_Driver/Src/stm32f4xx_hal_dma_ex.c ****   * @param  DstAddress The destination memory Buffer address
 290:Drivers/STM32F4xx_HAL_Driver/Src/stm32f4xx_hal_dma_ex.c ****   * @param  DataLength The length of data to be transferred from source to destination
 291:Drivers/STM32F4xx_HAL_Driver/Src/stm32f4xx_hal_dma_ex.c ****   * @retval HAL status
 292:Drivers/STM32F4xx_HAL_Driver/Src/stm32f4xx_hal_dma_ex.c ****   */
 293:Drivers/STM32F4xx_HAL_Driver/Src/stm32f4xx_hal_dma_ex.c **** static void DMA_MultiBufferSetConfig(DMA_HandleTypeDef *hdma, uint32_t SrcAddress, uint32_t DstAddr
 294:Drivers/STM32F4xx_HAL_Driver/Src/stm32f4xx_hal_dma_ex.c **** {  
  29              		.loc 1 294 0
  30              		.cfi_startproc
  31              		@ args = 0, pretend = 0, frame = 0
  32              		@ frame_needed = 0, uses_anonymous_args = 0
  33              		@ link register save eliminated.
  34              	.LVL0:
  35 0000 10B4     		push	{r4}
  36              	.LCFI0:
  37              		.cfi_def_cfa_offset 4
  38              		.cfi_offset 4, -4
 295:Drivers/STM32F4xx_HAL_Driver/Src/stm32f4xx_hal_dma_ex.c ****   /* Configure DMA Stream data length */
 296:Drivers/STM32F4xx_HAL_Driver/Src/stm32f4xx_hal_dma_ex.c ****   hdma->Instance->NDTR = DataLength;
  39              		.loc 1 296 0
  40 0002 0468     		ldr	r4, [r0]
  41 0004 6360     		str	r3, [r4, #4]
 297:Drivers/STM32F4xx_HAL_Driver/Src/stm32f4xx_hal_dma_ex.c ****   
 298:Drivers/STM32F4xx_HAL_Driver/Src/stm32f4xx_hal_dma_ex.c ****   /* Peripheral to Memory */
 299:Drivers/STM32F4xx_HAL_Driver/Src/stm32f4xx_hal_dma_ex.c ****   if((hdma->Init.Direction) == DMA_MEMORY_TO_PERIPH)
  42              		.loc 1 299 0
  43 0006 8368     		ldr	r3, [r0, #8]
  44              	.LVL1:
ARM GAS  C:\Users\shun2\AppData\Local\Temp\ccpVPaCt.s 			page 7


  45 0008 402B     		cmp	r3, #64
  46 000a 04D1     		bne	.L2
 300:Drivers/STM32F4xx_HAL_Driver/Src/stm32f4xx_hal_dma_ex.c ****   {   
 301:Drivers/STM32F4xx_HAL_Driver/Src/stm32f4xx_hal_dma_ex.c ****     /* Configure DMA Stream destination address */
 302:Drivers/STM32F4xx_HAL_Driver/Src/stm32f4xx_hal_dma_ex.c ****     hdma->Instance->PAR = DstAddress;
  47              		.loc 1 302 0
  48 000c 0368     		ldr	r3, [r0]
  49 000e 9A60     		str	r2, [r3, #8]
  50              	.LVL2:
 303:Drivers/STM32F4xx_HAL_Driver/Src/stm32f4xx_hal_dma_ex.c ****     
 304:Drivers/STM32F4xx_HAL_Driver/Src/stm32f4xx_hal_dma_ex.c ****     /* Configure DMA Stream source address */
 305:Drivers/STM32F4xx_HAL_Driver/Src/stm32f4xx_hal_dma_ex.c ****     hdma->Instance->M0AR = SrcAddress;
  51              		.loc 1 305 0
  52 0010 0368     		ldr	r3, [r0]
  53 0012 D960     		str	r1, [r3, #12]
  54 0014 03E0     		b	.L1
  55              	.LVL3:
  56              	.L2:
 306:Drivers/STM32F4xx_HAL_Driver/Src/stm32f4xx_hal_dma_ex.c ****   }
 307:Drivers/STM32F4xx_HAL_Driver/Src/stm32f4xx_hal_dma_ex.c ****   /* Memory to Peripheral */
 308:Drivers/STM32F4xx_HAL_Driver/Src/stm32f4xx_hal_dma_ex.c ****   else
 309:Drivers/STM32F4xx_HAL_Driver/Src/stm32f4xx_hal_dma_ex.c ****   {
 310:Drivers/STM32F4xx_HAL_Driver/Src/stm32f4xx_hal_dma_ex.c ****     /* Configure DMA Stream source address */
 311:Drivers/STM32F4xx_HAL_Driver/Src/stm32f4xx_hal_dma_ex.c ****     hdma->Instance->PAR = SrcAddress;
  57              		.loc 1 311 0
  58 0016 0368     		ldr	r3, [r0]
  59 0018 9960     		str	r1, [r3, #8]
  60              	.LVL4:
 312:Drivers/STM32F4xx_HAL_Driver/Src/stm32f4xx_hal_dma_ex.c ****     
 313:Drivers/STM32F4xx_HAL_Driver/Src/stm32f4xx_hal_dma_ex.c ****     /* Configure DMA Stream destination address */
 314:Drivers/STM32F4xx_HAL_Driver/Src/stm32f4xx_hal_dma_ex.c ****     hdma->Instance->M0AR = DstAddress;
  61              		.loc 1 314 0
  62 001a 0368     		ldr	r3, [r0]
  63 001c DA60     		str	r2, [r3, #12]
  64              	.L1:
 315:Drivers/STM32F4xx_HAL_Driver/Src/stm32f4xx_hal_dma_ex.c ****   }
 316:Drivers/STM32F4xx_HAL_Driver/Src/stm32f4xx_hal_dma_ex.c **** }
  65              		.loc 1 316 0
  66 001e 5DF8044B 		ldr	r4, [sp], #4
  67              	.LCFI1:
  68              		.cfi_restore 4
  69              		.cfi_def_cfa_offset 0
  70 0022 7047     		bx	lr
  71              		.cfi_endproc
  72              	.LFE127:
  74              		.section	.text.HAL_DMAEx_MultiBufferStart,"ax",%progbits
  75              		.align	2
  76              		.global	HAL_DMAEx_MultiBufferStart
  77              		.thumb
  78              		.thumb_func
  80              	HAL_DMAEx_MultiBufferStart:
  81              	.LFB124:
 118:Drivers/STM32F4xx_HAL_Driver/Src/stm32f4xx_hal_dma_ex.c ****   HAL_StatusTypeDef status = HAL_OK;
  82              		.loc 1 118 0
  83              		.cfi_startproc
  84              		@ args = 4, pretend = 0, frame = 0
  85              		@ frame_needed = 0, uses_anonymous_args = 0
ARM GAS  C:\Users\shun2\AppData\Local\Temp\ccpVPaCt.s 			page 8


  86              	.LVL5:
  87 0000 38B5     		push	{r3, r4, r5, lr}
  88              	.LCFI2:
  89              		.cfi_def_cfa_offset 16
  90              		.cfi_offset 3, -16
  91              		.cfi_offset 4, -12
  92              		.cfi_offset 5, -8
  93              		.cfi_offset 14, -4
  94              	.LVL6:
 125:Drivers/STM32F4xx_HAL_Driver/Src/stm32f4xx_hal_dma_ex.c ****   {
  95              		.loc 1 125 0
  96 0002 8468     		ldr	r4, [r0, #8]
  97 0004 802C     		cmp	r4, #128
  98 0006 04D1     		bne	.L6
 127:Drivers/STM32F4xx_HAL_Driver/Src/stm32f4xx_hal_dma_ex.c ****     status = HAL_ERROR;
  99              		.loc 1 127 0
 100 0008 4FF48073 		mov	r3, #256
 101              	.LVL7:
 102 000c 4365     		str	r3, [r0, #84]
 103              	.LVL8:
 128:Drivers/STM32F4xx_HAL_Driver/Src/stm32f4xx_hal_dma_ex.c ****   }
 104              		.loc 1 128 0
 105 000e 0120     		movs	r0, #1
 106              	.LVL9:
 107 0010 38BD     		pop	{r3, r4, r5, pc}
 108              	.LVL10:
 109              	.L6:
 133:Drivers/STM32F4xx_HAL_Driver/Src/stm32f4xx_hal_dma_ex.c ****     
 110              		.loc 1 133 0
 111 0012 90F83440 		ldrb	r4, [r0, #52]	@ zero_extendqisi2
 112 0016 012C     		cmp	r4, #1
 113 0018 1DD0     		beq	.L8
 133:Drivers/STM32F4xx_HAL_Driver/Src/stm32f4xx_hal_dma_ex.c ****     
 114              		.loc 1 133 0 is_stmt 0 discriminator 2
 115 001a 0124     		movs	r4, #1
 116 001c 80F83440 		strb	r4, [r0, #52]
 135:Drivers/STM32F4xx_HAL_Driver/Src/stm32f4xx_hal_dma_ex.c ****     {
 117              		.loc 1 135 0 is_stmt 1 discriminator 2
 118 0020 90F83540 		ldrb	r4, [r0, #53]	@ zero_extendqisi2
 119 0024 E4B2     		uxtb	r4, r4
 120 0026 012C     		cmp	r4, #1
 121 0028 17D1     		bne	.L9
 122 002a 0446     		mov	r4, r0
 138:Drivers/STM32F4xx_HAL_Driver/Src/stm32f4xx_hal_dma_ex.c ****       
 123              		.loc 1 138 0
 124 002c 0220     		movs	r0, #2
 125              	.LVL11:
 126 002e 84F83500 		strb	r0, [r4, #53]
 141:Drivers/STM32F4xx_HAL_Driver/Src/stm32f4xx_hal_dma_ex.c ****       
 127              		.loc 1 141 0
 128 0032 2568     		ldr	r5, [r4]
 129 0034 2868     		ldr	r0, [r5]
 130 0036 40F48020 		orr	r0, r0, #262144
 131 003a 2860     		str	r0, [r5]
 144:Drivers/STM32F4xx_HAL_Driver/Src/stm32f4xx_hal_dma_ex.c ****       
 132              		.loc 1 144 0
 133 003c 2068     		ldr	r0, [r4]
ARM GAS  C:\Users\shun2\AppData\Local\Temp\ccpVPaCt.s 			page 9


 134 003e 0361     		str	r3, [r0, #16]
 147:Drivers/STM32F4xx_HAL_Driver/Src/stm32f4xx_hal_dma_ex.c ****       
 135              		.loc 1 147 0
 136 0040 049B     		ldr	r3, [sp, #16]
 137              	.LVL12:
 138 0042 2046     		mov	r0, r4
 139              	.LVL13:
 140 0044 FFF7FEFF 		bl	DMA_MultiBufferSetConfig
 141              	.LVL14:
 150:Drivers/STM32F4xx_HAL_Driver/Src/stm32f4xx_hal_dma_ex.c ****     }
 142              		.loc 1 150 0
 143 0048 2268     		ldr	r2, [r4]
 144 004a 1368     		ldr	r3, [r2]
 145 004c 43F00103 		orr	r3, r3, #1
 146 0050 1360     		str	r3, [r2]
 119:Drivers/STM32F4xx_HAL_Driver/Src/stm32f4xx_hal_dma_ex.c ****   
 147              		.loc 1 119 0
 148 0052 0020     		movs	r0, #0
 149 0054 38BD     		pop	{r3, r4, r5, pc}
 150              	.LVL15:
 151              	.L8:
 133:Drivers/STM32F4xx_HAL_Driver/Src/stm32f4xx_hal_dma_ex.c ****     
 152              		.loc 1 133 0
 153 0056 0220     		movs	r0, #2
 154              	.LVL16:
 155 0058 38BD     		pop	{r3, r4, r5, pc}
 156              	.LVL17:
 157              	.L9:
 155:Drivers/STM32F4xx_HAL_Driver/Src/stm32f4xx_hal_dma_ex.c ****     }
 158              		.loc 1 155 0
 159 005a 0220     		movs	r0, #2
 160              	.LVL18:
 159:Drivers/STM32F4xx_HAL_Driver/Src/stm32f4xx_hal_dma_ex.c **** 
 161              		.loc 1 159 0
 162 005c 38BD     		pop	{r3, r4, r5, pc}
 163              		.cfi_endproc
 164              	.LFE124:
 166 005e 00BF     		.section	.text.HAL_DMAEx_MultiBufferStart_IT,"ax",%progbits
 167              		.align	2
 168              		.global	HAL_DMAEx_MultiBufferStart_IT
 169              		.thumb
 170              		.thumb_func
 172              	HAL_DMAEx_MultiBufferStart_IT:
 173              	.LFB125:
 172:Drivers/STM32F4xx_HAL_Driver/Src/stm32f4xx_hal_dma_ex.c ****   HAL_StatusTypeDef status = HAL_OK;
 174              		.loc 1 172 0
 175              		.cfi_startproc
 176              		@ args = 4, pretend = 0, frame = 0
 177              		@ frame_needed = 0, uses_anonymous_args = 0
 178              	.LVL19:
 179 0000 38B5     		push	{r3, r4, r5, lr}
 180              	.LCFI3:
 181              		.cfi_def_cfa_offset 16
 182              		.cfi_offset 3, -16
 183              		.cfi_offset 4, -12
 184              		.cfi_offset 5, -8
 185              		.cfi_offset 14, -4
ARM GAS  C:\Users\shun2\AppData\Local\Temp\ccpVPaCt.s 			page 10


 186              	.LVL20:
 179:Drivers/STM32F4xx_HAL_Driver/Src/stm32f4xx_hal_dma_ex.c ****   {
 187              		.loc 1 179 0
 188 0002 8468     		ldr	r4, [r0, #8]
 189 0004 802C     		cmp	r4, #128
 190 0006 04D1     		bne	.L12
 181:Drivers/STM32F4xx_HAL_Driver/Src/stm32f4xx_hal_dma_ex.c ****     return HAL_ERROR;
 191              		.loc 1 181 0
 192 0008 4FF48073 		mov	r3, #256
 193              	.LVL21:
 194 000c 4365     		str	r3, [r0, #84]
 182:Drivers/STM32F4xx_HAL_Driver/Src/stm32f4xx_hal_dma_ex.c ****   }
 195              		.loc 1 182 0
 196 000e 0120     		movs	r0, #1
 197              	.LVL22:
 198 0010 38BD     		pop	{r3, r4, r5, pc}
 199              	.LVL23:
 200              	.L12:
 186:Drivers/STM32F4xx_HAL_Driver/Src/stm32f4xx_hal_dma_ex.c ****   {
 201              		.loc 1 186 0
 202 0012 C46B     		ldr	r4, [r0, #60]
 203 0014 1CB1     		cbz	r4, .L14
 186:Drivers/STM32F4xx_HAL_Driver/Src/stm32f4xx_hal_dma_ex.c ****   {
 204              		.loc 1 186 0 is_stmt 0 discriminator 1
 205 0016 446C     		ldr	r4, [r0, #68]
 206 0018 0CB1     		cbz	r4, .L14
 186:Drivers/STM32F4xx_HAL_Driver/Src/stm32f4xx_hal_dma_ex.c ****   {
 207              		.loc 1 186 0 discriminator 2
 208 001a C46C     		ldr	r4, [r0, #76]
 209 001c 1CB9     		cbnz	r4, .L15
 210              	.L14:
 188:Drivers/STM32F4xx_HAL_Driver/Src/stm32f4xx_hal_dma_ex.c ****     return HAL_ERROR;
 211              		.loc 1 188 0 is_stmt 1
 212 001e 4023     		movs	r3, #64
 213              	.LVL24:
 214 0020 4365     		str	r3, [r0, #84]
 189:Drivers/STM32F4xx_HAL_Driver/Src/stm32f4xx_hal_dma_ex.c ****   }
 215              		.loc 1 189 0
 216 0022 0120     		movs	r0, #1
 217              	.LVL25:
 218 0024 38BD     		pop	{r3, r4, r5, pc}
 219              	.LVL26:
 220              	.L15:
 193:Drivers/STM32F4xx_HAL_Driver/Src/stm32f4xx_hal_dma_ex.c ****   
 221              		.loc 1 193 0
 222 0026 90F83440 		ldrb	r4, [r0, #52]	@ zero_extendqisi2
 223 002a 012C     		cmp	r4, #1
 224 002c 00F01B87 		beq	.L64
 193:Drivers/STM32F4xx_HAL_Driver/Src/stm32f4xx_hal_dma_ex.c ****   
 225              		.loc 1 193 0 is_stmt 0 discriminator 2
 226 0030 0124     		movs	r4, #1
 227 0032 80F83440 		strb	r4, [r0, #52]
 195:Drivers/STM32F4xx_HAL_Driver/Src/stm32f4xx_hal_dma_ex.c ****   {
 228              		.loc 1 195 0 is_stmt 1 discriminator 2
 229 0036 90F83540 		ldrb	r4, [r0, #53]	@ zero_extendqisi2
 230 003a E4B2     		uxtb	r4, r4
 231 003c 012C     		cmp	r4, #1
ARM GAS  C:\Users\shun2\AppData\Local\Temp\ccpVPaCt.s 			page 11


 232 003e 40F00D87 		bne	.L16
 233 0042 0446     		mov	r4, r0
 198:Drivers/STM32F4xx_HAL_Driver/Src/stm32f4xx_hal_dma_ex.c ****     
 234              		.loc 1 198 0
 235 0044 0220     		movs	r0, #2
 236              	.LVL27:
 237 0046 84F83500 		strb	r0, [r4, #53]
 201:Drivers/STM32F4xx_HAL_Driver/Src/stm32f4xx_hal_dma_ex.c ****     
 238              		.loc 1 201 0
 239 004a 0020     		movs	r0, #0
 240 004c 6065     		str	r0, [r4, #84]
 204:Drivers/STM32F4xx_HAL_Driver/Src/stm32f4xx_hal_dma_ex.c ****     
 241              		.loc 1 204 0
 242 004e 2568     		ldr	r5, [r4]
 243 0050 2868     		ldr	r0, [r5]
 244 0052 40F48020 		orr	r0, r0, #262144
 245 0056 2860     		str	r0, [r5]
 207:Drivers/STM32F4xx_HAL_Driver/Src/stm32f4xx_hal_dma_ex.c ****     
 246              		.loc 1 207 0
 247 0058 2068     		ldr	r0, [r4]
 248 005a 0361     		str	r3, [r0, #16]
 210:Drivers/STM32F4xx_HAL_Driver/Src/stm32f4xx_hal_dma_ex.c ****     
 249              		.loc 1 210 0
 250 005c 049B     		ldr	r3, [sp, #16]
 251              	.LVL28:
 252 005e 2046     		mov	r0, r4
 253              	.LVL29:
 254 0060 FFF7FEFF 		bl	DMA_MultiBufferSetConfig
 255              	.LVL30:
 213:Drivers/STM32F4xx_HAL_Driver/Src/stm32f4xx_hal_dma_ex.c ****     __HAL_DMA_CLEAR_FLAG (hdma, __HAL_DMA_GET_HT_FLAG_INDEX(hdma));
 256              		.loc 1 213 0
 257 0064 2368     		ldr	r3, [r4]
 258 0066 AA4A     		ldr	r2, .L306
 259 0068 9342     		cmp	r3, r2
 260 006a 54D9     		bls	.L17
 213:Drivers/STM32F4xx_HAL_Driver/Src/stm32f4xx_hal_dma_ex.c ****     __HAL_DMA_CLEAR_FLAG (hdma, __HAL_DMA_GET_HT_FLAG_INDEX(hdma));
 261              		.loc 1 213 0 is_stmt 0 discriminator 1
 262 006c A2F58962 		sub	r2, r2, #1096
 263 0070 9342     		cmp	r3, r2
 264 0072 2ED0     		beq	.L65
 213:Drivers/STM32F4xx_HAL_Driver/Src/stm32f4xx_hal_dma_ex.c ****     __HAL_DMA_CLEAR_FLAG (hdma, __HAL_DMA_GET_HT_FLAG_INDEX(hdma));
 265              		.loc 1 213 0 discriminator 3
 266 0074 02F58062 		add	r2, r2, #1024
 267 0078 9342     		cmp	r3, r2
 268 007a 2CD0     		beq	.L66
 213:Drivers/STM32F4xx_HAL_Driver/Src/stm32f4xx_hal_dma_ex.c ****     __HAL_DMA_CLEAR_FLAG (hdma, __HAL_DMA_GET_HT_FLAG_INDEX(hdma));
 269              		.loc 1 213 0 discriminator 5
 270 007c A2F56872 		sub	r2, r2, #928
 271 0080 9342     		cmp	r3, r2
 272 0082 2AD0     		beq	.L67
 213:Drivers/STM32F4xx_HAL_Driver/Src/stm32f4xx_hal_dma_ex.c ****     __HAL_DMA_CLEAR_FLAG (hdma, __HAL_DMA_GET_HT_FLAG_INDEX(hdma));
 273              		.loc 1 213 0 discriminator 7
 274 0084 02F58062 		add	r2, r2, #1024
 275 0088 9342     		cmp	r3, r2
 276 008a 28D0     		beq	.L68
 213:Drivers/STM32F4xx_HAL_Driver/Src/stm32f4xx_hal_dma_ex.c ****     __HAL_DMA_CLEAR_FLAG (hdma, __HAL_DMA_GET_HT_FLAG_INDEX(hdma));
 277              		.loc 1 213 0 discriminator 9
ARM GAS  C:\Users\shun2\AppData\Local\Temp\ccpVPaCt.s 			page 12


 278 008c A2F58962 		sub	r2, r2, #1096
 279 0090 9342     		cmp	r3, r2
 280 0092 26D0     		beq	.L69
 213:Drivers/STM32F4xx_HAL_Driver/Src/stm32f4xx_hal_dma_ex.c ****     __HAL_DMA_CLEAR_FLAG (hdma, __HAL_DMA_GET_HT_FLAG_INDEX(hdma));
 281              		.loc 1 213 0 discriminator 11
 282 0094 02F58062 		add	r2, r2, #1024
 283 0098 9342     		cmp	r3, r2
 284 009a 25D0     		beq	.L70
 213:Drivers/STM32F4xx_HAL_Driver/Src/stm32f4xx_hal_dma_ex.c ****     __HAL_DMA_CLEAR_FLAG (hdma, __HAL_DMA_GET_HT_FLAG_INDEX(hdma));
 285              		.loc 1 213 0 discriminator 13
 286 009c A2F56872 		sub	r2, r2, #928
 287 00a0 9342     		cmp	r3, r2
 288 00a2 24D0     		beq	.L71
 213:Drivers/STM32F4xx_HAL_Driver/Src/stm32f4xx_hal_dma_ex.c ****     __HAL_DMA_CLEAR_FLAG (hdma, __HAL_DMA_GET_HT_FLAG_INDEX(hdma));
 289              		.loc 1 213 0 discriminator 15
 290 00a4 02F58062 		add	r2, r2, #1024
 291 00a8 9342     		cmp	r3, r2
 292 00aa 23D0     		beq	.L72
 213:Drivers/STM32F4xx_HAL_Driver/Src/stm32f4xx_hal_dma_ex.c ****     __HAL_DMA_CLEAR_FLAG (hdma, __HAL_DMA_GET_HT_FLAG_INDEX(hdma));
 293              		.loc 1 213 0 discriminator 17
 294 00ac A2F58962 		sub	r2, r2, #1096
 295 00b0 9342     		cmp	r3, r2
 296 00b2 22D0     		beq	.L73
 213:Drivers/STM32F4xx_HAL_Driver/Src/stm32f4xx_hal_dma_ex.c ****     __HAL_DMA_CLEAR_FLAG (hdma, __HAL_DMA_GET_HT_FLAG_INDEX(hdma));
 297              		.loc 1 213 0 discriminator 19
 298 00b4 02F58062 		add	r2, r2, #1024
 299 00b8 9342     		cmp	r3, r2
 300 00ba 21D0     		beq	.L74
 213:Drivers/STM32F4xx_HAL_Driver/Src/stm32f4xx_hal_dma_ex.c ****     __HAL_DMA_CLEAR_FLAG (hdma, __HAL_DMA_GET_HT_FLAG_INDEX(hdma));
 301              		.loc 1 213 0 discriminator 21
 302 00bc A2F56872 		sub	r2, r2, #928
 303 00c0 9342     		cmp	r3, r2
 304 00c2 20D0     		beq	.L75
 213:Drivers/STM32F4xx_HAL_Driver/Src/stm32f4xx_hal_dma_ex.c ****     __HAL_DMA_CLEAR_FLAG (hdma, __HAL_DMA_GET_HT_FLAG_INDEX(hdma));
 305              		.loc 1 213 0 discriminator 23
 306 00c4 02F58062 		add	r2, r2, #1024
 307 00c8 9342     		cmp	r3, r2
 308 00ca 1FD1     		bne	.L76
 213:Drivers/STM32F4xx_HAL_Driver/Src/stm32f4xx_hal_dma_ex.c ****     __HAL_DMA_CLEAR_FLAG (hdma, __HAL_DMA_GET_HT_FLAG_INDEX(hdma));
 309              		.loc 1 213 0
 310 00cc 4FF40013 		mov	r3, #2097152
 311 00d0 1EE0     		b	.L18
 312              	.L65:
 313 00d2 2023     		movs	r3, #32
 314 00d4 1CE0     		b	.L18
 315              	.L66:
 316 00d6 2023     		movs	r3, #32
 317 00d8 1AE0     		b	.L18
 318              	.L67:
 319 00da 2023     		movs	r3, #32
 320 00dc 18E0     		b	.L18
 321              	.L68:
 322 00de 2023     		movs	r3, #32
 323 00e0 16E0     		b	.L18
 324              	.L69:
 325 00e2 4FF40063 		mov	r3, #2048
 326 00e6 13E0     		b	.L18
ARM GAS  C:\Users\shun2\AppData\Local\Temp\ccpVPaCt.s 			page 13


 327              	.L70:
 328 00e8 4FF40063 		mov	r3, #2048
 329 00ec 10E0     		b	.L18
 330              	.L71:
 331 00ee 4FF40063 		mov	r3, #2048
 332 00f2 0DE0     		b	.L18
 333              	.L72:
 334 00f4 4FF40063 		mov	r3, #2048
 335 00f8 0AE0     		b	.L18
 336              	.L73:
 337 00fa 4FF40013 		mov	r3, #2097152
 338 00fe 07E0     		b	.L18
 339              	.L74:
 340 0100 4FF40013 		mov	r3, #2097152
 341 0104 04E0     		b	.L18
 342              	.L75:
 343 0106 4FF40013 		mov	r3, #2097152
 344 010a 01E0     		b	.L18
 345              	.L76:
 346 010c 4FF00063 		mov	r3, #134217728
 347              	.L18:
 213:Drivers/STM32F4xx_HAL_Driver/Src/stm32f4xx_hal_dma_ex.c ****     __HAL_DMA_CLEAR_FLAG (hdma, __HAL_DMA_GET_HT_FLAG_INDEX(hdma));
 348              		.loc 1 213 0 discriminator 50
 349 0110 804A     		ldr	r2, .L306+4
 350 0112 D360     		str	r3, [r2, #12]
 351 0114 0CE1     		b	.L19
 352              	.L17:
 213:Drivers/STM32F4xx_HAL_Driver/Src/stm32f4xx_hal_dma_ex.c ****     __HAL_DMA_CLEAR_FLAG (hdma, __HAL_DMA_GET_HT_FLAG_INDEX(hdma));
 353              		.loc 1 213 0 discriminator 2
 354 0116 804A     		ldr	r2, .L306+8
 355 0118 9342     		cmp	r3, r2
 356 011a 53D9     		bls	.L20
 213:Drivers/STM32F4xx_HAL_Driver/Src/stm32f4xx_hal_dma_ex.c ****     __HAL_DMA_CLEAR_FLAG (hdma, __HAL_DMA_GET_HT_FLAG_INDEX(hdma));
 357              		.loc 1 213 0 discriminator 51
 358 011c A83A     		subs	r2, r2, #168
 359 011e 9342     		cmp	r3, r2
 360 0120 2ED0     		beq	.L77
 213:Drivers/STM32F4xx_HAL_Driver/Src/stm32f4xx_hal_dma_ex.c ****     __HAL_DMA_CLEAR_FLAG (hdma, __HAL_DMA_GET_HT_FLAG_INDEX(hdma));
 361              		.loc 1 213 0 discriminator 53
 362 0122 02F58062 		add	r2, r2, #1024
 363 0126 9342     		cmp	r3, r2
 364 0128 2CD0     		beq	.L78
 213:Drivers/STM32F4xx_HAL_Driver/Src/stm32f4xx_hal_dma_ex.c ****     __HAL_DMA_CLEAR_FLAG (hdma, __HAL_DMA_GET_HT_FLAG_INDEX(hdma));
 365              		.loc 1 213 0 discriminator 55
 366 012a A2F56872 		sub	r2, r2, #928
 367 012e 9342     		cmp	r3, r2
 368 0130 2AD0     		beq	.L79
 213:Drivers/STM32F4xx_HAL_Driver/Src/stm32f4xx_hal_dma_ex.c ****     __HAL_DMA_CLEAR_FLAG (hdma, __HAL_DMA_GET_HT_FLAG_INDEX(hdma));
 369              		.loc 1 213 0 discriminator 57
 370 0132 02F58062 		add	r2, r2, #1024
 371 0136 9342     		cmp	r3, r2
 372 0138 28D0     		beq	.L80
 213:Drivers/STM32F4xx_HAL_Driver/Src/stm32f4xx_hal_dma_ex.c ****     __HAL_DMA_CLEAR_FLAG (hdma, __HAL_DMA_GET_HT_FLAG_INDEX(hdma));
 373              		.loc 1 213 0 discriminator 59
 374 013a A2F58962 		sub	r2, r2, #1096
 375 013e 9342     		cmp	r3, r2
 376 0140 26D0     		beq	.L81
ARM GAS  C:\Users\shun2\AppData\Local\Temp\ccpVPaCt.s 			page 14


 213:Drivers/STM32F4xx_HAL_Driver/Src/stm32f4xx_hal_dma_ex.c ****     __HAL_DMA_CLEAR_FLAG (hdma, __HAL_DMA_GET_HT_FLAG_INDEX(hdma));
 377              		.loc 1 213 0 discriminator 61
 378 0142 02F58062 		add	r2, r2, #1024
 379 0146 9342     		cmp	r3, r2
 380 0148 25D0     		beq	.L82
 213:Drivers/STM32F4xx_HAL_Driver/Src/stm32f4xx_hal_dma_ex.c ****     __HAL_DMA_CLEAR_FLAG (hdma, __HAL_DMA_GET_HT_FLAG_INDEX(hdma));
 381              		.loc 1 213 0 discriminator 63
 382 014a A2F56872 		sub	r2, r2, #928
 383 014e 9342     		cmp	r3, r2
 384 0150 24D0     		beq	.L83
 213:Drivers/STM32F4xx_HAL_Driver/Src/stm32f4xx_hal_dma_ex.c ****     __HAL_DMA_CLEAR_FLAG (hdma, __HAL_DMA_GET_HT_FLAG_INDEX(hdma));
 385              		.loc 1 213 0 discriminator 65
 386 0152 02F58062 		add	r2, r2, #1024
 387 0156 9342     		cmp	r3, r2
 388 0158 23D0     		beq	.L84
 213:Drivers/STM32F4xx_HAL_Driver/Src/stm32f4xx_hal_dma_ex.c ****     __HAL_DMA_CLEAR_FLAG (hdma, __HAL_DMA_GET_HT_FLAG_INDEX(hdma));
 389              		.loc 1 213 0 discriminator 67
 390 015a A2F58962 		sub	r2, r2, #1096
 391 015e 9342     		cmp	r3, r2
 392 0160 22D0     		beq	.L85
 213:Drivers/STM32F4xx_HAL_Driver/Src/stm32f4xx_hal_dma_ex.c ****     __HAL_DMA_CLEAR_FLAG (hdma, __HAL_DMA_GET_HT_FLAG_INDEX(hdma));
 393              		.loc 1 213 0 discriminator 69
 394 0162 02F58062 		add	r2, r2, #1024
 395 0166 9342     		cmp	r3, r2
 396 0168 21D0     		beq	.L86
 213:Drivers/STM32F4xx_HAL_Driver/Src/stm32f4xx_hal_dma_ex.c ****     __HAL_DMA_CLEAR_FLAG (hdma, __HAL_DMA_GET_HT_FLAG_INDEX(hdma));
 397              		.loc 1 213 0 discriminator 71
 398 016a A2F56872 		sub	r2, r2, #928
 399 016e 9342     		cmp	r3, r2
 400 0170 20D0     		beq	.L87
 213:Drivers/STM32F4xx_HAL_Driver/Src/stm32f4xx_hal_dma_ex.c ****     __HAL_DMA_CLEAR_FLAG (hdma, __HAL_DMA_GET_HT_FLAG_INDEX(hdma));
 401              		.loc 1 213 0 discriminator 73
 402 0172 02F58062 		add	r2, r2, #1024
 403 0176 9342     		cmp	r3, r2
 404 0178 1FD1     		bne	.L88
 213:Drivers/STM32F4xx_HAL_Driver/Src/stm32f4xx_hal_dma_ex.c ****     __HAL_DMA_CLEAR_FLAG (hdma, __HAL_DMA_GET_HT_FLAG_INDEX(hdma));
 405              		.loc 1 213 0
 406 017a 4FF40013 		mov	r3, #2097152
 407 017e 1EE0     		b	.L21
 408              	.L77:
 409 0180 2023     		movs	r3, #32
 410 0182 1CE0     		b	.L21
 411              	.L78:
 412 0184 2023     		movs	r3, #32
 413 0186 1AE0     		b	.L21
 414              	.L79:
 415 0188 2023     		movs	r3, #32
 416 018a 18E0     		b	.L21
 417              	.L80:
 418 018c 2023     		movs	r3, #32
 419 018e 16E0     		b	.L21
 420              	.L81:
 421 0190 4FF40063 		mov	r3, #2048
 422 0194 13E0     		b	.L21
 423              	.L82:
 424 0196 4FF40063 		mov	r3, #2048
 425 019a 10E0     		b	.L21
ARM GAS  C:\Users\shun2\AppData\Local\Temp\ccpVPaCt.s 			page 15


 426              	.L83:
 427 019c 4FF40063 		mov	r3, #2048
 428 01a0 0DE0     		b	.L21
 429              	.L84:
 430 01a2 4FF40063 		mov	r3, #2048
 431 01a6 0AE0     		b	.L21
 432              	.L85:
 433 01a8 4FF40013 		mov	r3, #2097152
 434 01ac 07E0     		b	.L21
 435              	.L86:
 436 01ae 4FF40013 		mov	r3, #2097152
 437 01b2 04E0     		b	.L21
 438              	.L87:
 439 01b4 4FF40013 		mov	r3, #2097152
 440 01b8 01E0     		b	.L21
 441              	.L88:
 442 01ba 4FF00063 		mov	r3, #134217728
 443              	.L21:
 213:Drivers/STM32F4xx_HAL_Driver/Src/stm32f4xx_hal_dma_ex.c ****     __HAL_DMA_CLEAR_FLAG (hdma, __HAL_DMA_GET_HT_FLAG_INDEX(hdma));
 444              		.loc 1 213 0 discriminator 100
 445 01be 554A     		ldr	r2, .L306+4
 446 01c0 9360     		str	r3, [r2, #8]
 447 01c2 B5E0     		b	.L19
 448              	.L20:
 213:Drivers/STM32F4xx_HAL_Driver/Src/stm32f4xx_hal_dma_ex.c ****     __HAL_DMA_CLEAR_FLAG (hdma, __HAL_DMA_GET_HT_FLAG_INDEX(hdma));
 449              		.loc 1 213 0 discriminator 52
 450 01c4 554A     		ldr	r2, .L306+12
 451 01c6 9342     		cmp	r3, r2
 452 01c8 53D9     		bls	.L23
 213:Drivers/STM32F4xx_HAL_Driver/Src/stm32f4xx_hal_dma_ex.c ****     __HAL_DMA_CLEAR_FLAG (hdma, __HAL_DMA_GET_HT_FLAG_INDEX(hdma));
 453              		.loc 1 213 0 discriminator 102
 454 01ca 483A     		subs	r2, r2, #72
 455 01cc 9342     		cmp	r3, r2
 456 01ce 2ED0     		beq	.L89
 213:Drivers/STM32F4xx_HAL_Driver/Src/stm32f4xx_hal_dma_ex.c ****     __HAL_DMA_CLEAR_FLAG (hdma, __HAL_DMA_GET_HT_FLAG_INDEX(hdma));
 457              		.loc 1 213 0 discriminator 104
 458 01d0 02F58062 		add	r2, r2, #1024
 459 01d4 9342     		cmp	r3, r2
 460 01d6 2CD0     		beq	.L90
 213:Drivers/STM32F4xx_HAL_Driver/Src/stm32f4xx_hal_dma_ex.c ****     __HAL_DMA_CLEAR_FLAG (hdma, __HAL_DMA_GET_HT_FLAG_INDEX(hdma));
 461              		.loc 1 213 0 discriminator 106
 462 01d8 A2F56872 		sub	r2, r2, #928
 463 01dc 9342     		cmp	r3, r2
 464 01de 2AD0     		beq	.L91
 213:Drivers/STM32F4xx_HAL_Driver/Src/stm32f4xx_hal_dma_ex.c ****     __HAL_DMA_CLEAR_FLAG (hdma, __HAL_DMA_GET_HT_FLAG_INDEX(hdma));
 465              		.loc 1 213 0 discriminator 108
 466 01e0 02F58062 		add	r2, r2, #1024
 467 01e4 9342     		cmp	r3, r2
 468 01e6 28D0     		beq	.L92
 213:Drivers/STM32F4xx_HAL_Driver/Src/stm32f4xx_hal_dma_ex.c ****     __HAL_DMA_CLEAR_FLAG (hdma, __HAL_DMA_GET_HT_FLAG_INDEX(hdma));
 469              		.loc 1 213 0 discriminator 110
 470 01e8 A2F58962 		sub	r2, r2, #1096
 471 01ec 9342     		cmp	r3, r2
 472 01ee 26D0     		beq	.L93
 213:Drivers/STM32F4xx_HAL_Driver/Src/stm32f4xx_hal_dma_ex.c ****     __HAL_DMA_CLEAR_FLAG (hdma, __HAL_DMA_GET_HT_FLAG_INDEX(hdma));
 473              		.loc 1 213 0 discriminator 112
 474 01f0 02F58062 		add	r2, r2, #1024
ARM GAS  C:\Users\shun2\AppData\Local\Temp\ccpVPaCt.s 			page 16


 475 01f4 9342     		cmp	r3, r2
 476 01f6 25D0     		beq	.L94
 213:Drivers/STM32F4xx_HAL_Driver/Src/stm32f4xx_hal_dma_ex.c ****     __HAL_DMA_CLEAR_FLAG (hdma, __HAL_DMA_GET_HT_FLAG_INDEX(hdma));
 477              		.loc 1 213 0 discriminator 114
 478 01f8 A2F56872 		sub	r2, r2, #928
 479 01fc 9342     		cmp	r3, r2
 480 01fe 24D0     		beq	.L95
 213:Drivers/STM32F4xx_HAL_Driver/Src/stm32f4xx_hal_dma_ex.c ****     __HAL_DMA_CLEAR_FLAG (hdma, __HAL_DMA_GET_HT_FLAG_INDEX(hdma));
 481              		.loc 1 213 0 discriminator 116
 482 0200 02F58062 		add	r2, r2, #1024
 483 0204 9342     		cmp	r3, r2
 484 0206 23D0     		beq	.L96
 213:Drivers/STM32F4xx_HAL_Driver/Src/stm32f4xx_hal_dma_ex.c ****     __HAL_DMA_CLEAR_FLAG (hdma, __HAL_DMA_GET_HT_FLAG_INDEX(hdma));
 485              		.loc 1 213 0 discriminator 118
 486 0208 A2F58962 		sub	r2, r2, #1096
 487 020c 9342     		cmp	r3, r2
 488 020e 22D0     		beq	.L97
 213:Drivers/STM32F4xx_HAL_Driver/Src/stm32f4xx_hal_dma_ex.c ****     __HAL_DMA_CLEAR_FLAG (hdma, __HAL_DMA_GET_HT_FLAG_INDEX(hdma));
 489              		.loc 1 213 0 discriminator 120
 490 0210 02F58062 		add	r2, r2, #1024
 491 0214 9342     		cmp	r3, r2
 492 0216 21D0     		beq	.L98
 213:Drivers/STM32F4xx_HAL_Driver/Src/stm32f4xx_hal_dma_ex.c ****     __HAL_DMA_CLEAR_FLAG (hdma, __HAL_DMA_GET_HT_FLAG_INDEX(hdma));
 493              		.loc 1 213 0 discriminator 122
 494 0218 A2F56872 		sub	r2, r2, #928
 495 021c 9342     		cmp	r3, r2
 496 021e 20D0     		beq	.L99
 213:Drivers/STM32F4xx_HAL_Driver/Src/stm32f4xx_hal_dma_ex.c ****     __HAL_DMA_CLEAR_FLAG (hdma, __HAL_DMA_GET_HT_FLAG_INDEX(hdma));
 497              		.loc 1 213 0 discriminator 124
 498 0220 02F58062 		add	r2, r2, #1024
 499 0224 9342     		cmp	r3, r2
 500 0226 1FD1     		bne	.L100
 213:Drivers/STM32F4xx_HAL_Driver/Src/stm32f4xx_hal_dma_ex.c ****     __HAL_DMA_CLEAR_FLAG (hdma, __HAL_DMA_GET_HT_FLAG_INDEX(hdma));
 501              		.loc 1 213 0
 502 0228 4FF40013 		mov	r3, #2097152
 503 022c 1EE0     		b	.L24
 504              	.L89:
 505 022e 2023     		movs	r3, #32
 506 0230 1CE0     		b	.L24
 507              	.L90:
 508 0232 2023     		movs	r3, #32
 509 0234 1AE0     		b	.L24
 510              	.L91:
 511 0236 2023     		movs	r3, #32
 512 0238 18E0     		b	.L24
 513              	.L92:
 514 023a 2023     		movs	r3, #32
 515 023c 16E0     		b	.L24
 516              	.L93:
 517 023e 4FF40063 		mov	r3, #2048
 518 0242 13E0     		b	.L24
 519              	.L94:
 520 0244 4FF40063 		mov	r3, #2048
 521 0248 10E0     		b	.L24
 522              	.L95:
 523 024a 4FF40063 		mov	r3, #2048
 524 024e 0DE0     		b	.L24
ARM GAS  C:\Users\shun2\AppData\Local\Temp\ccpVPaCt.s 			page 17


 525              	.L96:
 526 0250 4FF40063 		mov	r3, #2048
 527 0254 0AE0     		b	.L24
 528              	.L97:
 529 0256 4FF40013 		mov	r3, #2097152
 530 025a 07E0     		b	.L24
 531              	.L98:
 532 025c 4FF40013 		mov	r3, #2097152
 533 0260 04E0     		b	.L24
 534              	.L99:
 535 0262 4FF40013 		mov	r3, #2097152
 536 0266 01E0     		b	.L24
 537              	.L100:
 538 0268 4FF00063 		mov	r3, #134217728
 539              	.L24:
 213:Drivers/STM32F4xx_HAL_Driver/Src/stm32f4xx_hal_dma_ex.c ****     __HAL_DMA_CLEAR_FLAG (hdma, __HAL_DMA_GET_HT_FLAG_INDEX(hdma));
 540              		.loc 1 213 0 discriminator 151
 541 026c 2C4A     		ldr	r2, .L306+16
 542 026e D360     		str	r3, [r2, #12]
 543 0270 5EE0     		b	.L19
 544              	.L23:
 213:Drivers/STM32F4xx_HAL_Driver/Src/stm32f4xx_hal_dma_ex.c ****     __HAL_DMA_CLEAR_FLAG (hdma, __HAL_DMA_GET_HT_FLAG_INDEX(hdma));
 545              		.loc 1 213 0 discriminator 103
 546 0272 2C4A     		ldr	r2, .L306+20
 547 0274 9342     		cmp	r3, r2
 548 0276 2ED0     		beq	.L101
 213:Drivers/STM32F4xx_HAL_Driver/Src/stm32f4xx_hal_dma_ex.c ****     __HAL_DMA_CLEAR_FLAG (hdma, __HAL_DMA_GET_HT_FLAG_INDEX(hdma));
 549              		.loc 1 213 0 discriminator 153
 550 0278 02F58062 		add	r2, r2, #1024
 551 027c 9342     		cmp	r3, r2
 552 027e 2CD0     		beq	.L102
 213:Drivers/STM32F4xx_HAL_Driver/Src/stm32f4xx_hal_dma_ex.c ****     __HAL_DMA_CLEAR_FLAG (hdma, __HAL_DMA_GET_HT_FLAG_INDEX(hdma));
 553              		.loc 1 213 0 discriminator 155
 554 0280 A2F56872 		sub	r2, r2, #928
 555 0284 9342     		cmp	r3, r2
 556 0286 2AD0     		beq	.L103
 213:Drivers/STM32F4xx_HAL_Driver/Src/stm32f4xx_hal_dma_ex.c ****     __HAL_DMA_CLEAR_FLAG (hdma, __HAL_DMA_GET_HT_FLAG_INDEX(hdma));
 557              		.loc 1 213 0 discriminator 157
 558 0288 02F58062 		add	r2, r2, #1024
 559 028c 9342     		cmp	r3, r2
 560 028e 28D0     		beq	.L104
 213:Drivers/STM32F4xx_HAL_Driver/Src/stm32f4xx_hal_dma_ex.c ****     __HAL_DMA_CLEAR_FLAG (hdma, __HAL_DMA_GET_HT_FLAG_INDEX(hdma));
 561              		.loc 1 213 0 discriminator 159
 562 0290 A2F58962 		sub	r2, r2, #1096
 563 0294 9342     		cmp	r3, r2
 564 0296 26D0     		beq	.L105
 213:Drivers/STM32F4xx_HAL_Driver/Src/stm32f4xx_hal_dma_ex.c ****     __HAL_DMA_CLEAR_FLAG (hdma, __HAL_DMA_GET_HT_FLAG_INDEX(hdma));
 565              		.loc 1 213 0 discriminator 161
 566 0298 02F58062 		add	r2, r2, #1024
 567 029c 9342     		cmp	r3, r2
 568 029e 25D0     		beq	.L106
 213:Drivers/STM32F4xx_HAL_Driver/Src/stm32f4xx_hal_dma_ex.c ****     __HAL_DMA_CLEAR_FLAG (hdma, __HAL_DMA_GET_HT_FLAG_INDEX(hdma));
 569              		.loc 1 213 0 discriminator 163
 570 02a0 A2F56872 		sub	r2, r2, #928
 571 02a4 9342     		cmp	r3, r2
 572 02a6 24D0     		beq	.L107
 213:Drivers/STM32F4xx_HAL_Driver/Src/stm32f4xx_hal_dma_ex.c ****     __HAL_DMA_CLEAR_FLAG (hdma, __HAL_DMA_GET_HT_FLAG_INDEX(hdma));
ARM GAS  C:\Users\shun2\AppData\Local\Temp\ccpVPaCt.s 			page 18


 573              		.loc 1 213 0 discriminator 165
 574 02a8 02F58062 		add	r2, r2, #1024
 575 02ac 9342     		cmp	r3, r2
 576 02ae 23D0     		beq	.L108
 213:Drivers/STM32F4xx_HAL_Driver/Src/stm32f4xx_hal_dma_ex.c ****     __HAL_DMA_CLEAR_FLAG (hdma, __HAL_DMA_GET_HT_FLAG_INDEX(hdma));
 577              		.loc 1 213 0 discriminator 167
 578 02b0 A2F58962 		sub	r2, r2, #1096
 579 02b4 9342     		cmp	r3, r2
 580 02b6 22D0     		beq	.L109
 213:Drivers/STM32F4xx_HAL_Driver/Src/stm32f4xx_hal_dma_ex.c ****     __HAL_DMA_CLEAR_FLAG (hdma, __HAL_DMA_GET_HT_FLAG_INDEX(hdma));
 581              		.loc 1 213 0 discriminator 169
 582 02b8 02F58062 		add	r2, r2, #1024
 583 02bc 9342     		cmp	r3, r2
 584 02be 21D0     		beq	.L110
 213:Drivers/STM32F4xx_HAL_Driver/Src/stm32f4xx_hal_dma_ex.c ****     __HAL_DMA_CLEAR_FLAG (hdma, __HAL_DMA_GET_HT_FLAG_INDEX(hdma));
 585              		.loc 1 213 0 discriminator 171
 586 02c0 A2F56872 		sub	r2, r2, #928
 587 02c4 9342     		cmp	r3, r2
 588 02c6 20D0     		beq	.L111
 213:Drivers/STM32F4xx_HAL_Driver/Src/stm32f4xx_hal_dma_ex.c ****     __HAL_DMA_CLEAR_FLAG (hdma, __HAL_DMA_GET_HT_FLAG_INDEX(hdma));
 589              		.loc 1 213 0 discriminator 173
 590 02c8 02F58062 		add	r2, r2, #1024
 591 02cc 9342     		cmp	r3, r2
 592 02ce 2BD1     		bne	.L112
 213:Drivers/STM32F4xx_HAL_Driver/Src/stm32f4xx_hal_dma_ex.c ****     __HAL_DMA_CLEAR_FLAG (hdma, __HAL_DMA_GET_HT_FLAG_INDEX(hdma));
 593              		.loc 1 213 0
 594 02d0 4FF40013 		mov	r3, #2097152
 595 02d4 2AE0     		b	.L25
 596              	.L101:
 597 02d6 2023     		movs	r3, #32
 598 02d8 28E0     		b	.L25
 599              	.L102:
 600 02da 2023     		movs	r3, #32
 601 02dc 26E0     		b	.L25
 602              	.L103:
 603 02de 2023     		movs	r3, #32
 604 02e0 24E0     		b	.L25
 605              	.L104:
 606 02e2 2023     		movs	r3, #32
 607 02e4 22E0     		b	.L25
 608              	.L105:
 609 02e6 4FF40063 		mov	r3, #2048
 610 02ea 1FE0     		b	.L25
 611              	.L106:
 612 02ec 4FF40063 		mov	r3, #2048
 613 02f0 1CE0     		b	.L25
 614              	.L107:
 615 02f2 4FF40063 		mov	r3, #2048
 616 02f6 19E0     		b	.L25
 617              	.L108:
 618 02f8 4FF40063 		mov	r3, #2048
 619 02fc 16E0     		b	.L25
 620              	.L109:
 621 02fe 4FF40013 		mov	r3, #2097152
 622 0302 13E0     		b	.L25
 623              	.L110:
 624 0304 4FF40013 		mov	r3, #2097152
ARM GAS  C:\Users\shun2\AppData\Local\Temp\ccpVPaCt.s 			page 19


 625 0308 10E0     		b	.L25
 626              	.L111:
 627 030a 4FF40013 		mov	r3, #2097152
 628 030e 0DE0     		b	.L25
 629              	.L307:
 630              		.align	2
 631              	.L306:
 632 0310 58640240 		.word	1073898584
 633 0314 00640240 		.word	1073898496
 634 0318 B8600240 		.word	1073897656
 635 031c 58600240 		.word	1073897560
 636 0320 00600240 		.word	1073897472
 637 0324 10600240 		.word	1073897488
 638              	.L112:
 639 0328 4FF00063 		mov	r3, #134217728
 640              	.L25:
 213:Drivers/STM32F4xx_HAL_Driver/Src/stm32f4xx_hal_dma_ex.c ****     __HAL_DMA_CLEAR_FLAG (hdma, __HAL_DMA_GET_HT_FLAG_INDEX(hdma));
 641              		.loc 1 213 0 discriminator 200
 642 032c AB4A     		ldr	r2, .L308
 643 032e 9360     		str	r3, [r2, #8]
 644              	.L19:
 214:Drivers/STM32F4xx_HAL_Driver/Src/stm32f4xx_hal_dma_ex.c ****     __HAL_DMA_CLEAR_FLAG (hdma, __HAL_DMA_GET_TE_FLAG_INDEX(hdma));
 645              		.loc 1 214 0 is_stmt 1
 646 0330 2368     		ldr	r3, [r4]
 647 0332 AB4A     		ldr	r2, .L308+4
 648 0334 9342     		cmp	r3, r2
 649 0336 54D9     		bls	.L26
 214:Drivers/STM32F4xx_HAL_Driver/Src/stm32f4xx_hal_dma_ex.c ****     __HAL_DMA_CLEAR_FLAG (hdma, __HAL_DMA_GET_TE_FLAG_INDEX(hdma));
 650              		.loc 1 214 0 is_stmt 0 discriminator 1
 651 0338 A2F58962 		sub	r2, r2, #1096
 652 033c 9342     		cmp	r3, r2
 653 033e 2ED0     		beq	.L113
 214:Drivers/STM32F4xx_HAL_Driver/Src/stm32f4xx_hal_dma_ex.c ****     __HAL_DMA_CLEAR_FLAG (hdma, __HAL_DMA_GET_TE_FLAG_INDEX(hdma));
 654              		.loc 1 214 0 discriminator 3
 655 0340 02F58062 		add	r2, r2, #1024
 656 0344 9342     		cmp	r3, r2
 657 0346 2CD0     		beq	.L114
 214:Drivers/STM32F4xx_HAL_Driver/Src/stm32f4xx_hal_dma_ex.c ****     __HAL_DMA_CLEAR_FLAG (hdma, __HAL_DMA_GET_TE_FLAG_INDEX(hdma));
 658              		.loc 1 214 0 discriminator 5
 659 0348 A2F56872 		sub	r2, r2, #928
 660 034c 9342     		cmp	r3, r2
 661 034e 2AD0     		beq	.L115
 214:Drivers/STM32F4xx_HAL_Driver/Src/stm32f4xx_hal_dma_ex.c ****     __HAL_DMA_CLEAR_FLAG (hdma, __HAL_DMA_GET_TE_FLAG_INDEX(hdma));
 662              		.loc 1 214 0 discriminator 7
 663 0350 02F58062 		add	r2, r2, #1024
 664 0354 9342     		cmp	r3, r2
 665 0356 28D0     		beq	.L116
 214:Drivers/STM32F4xx_HAL_Driver/Src/stm32f4xx_hal_dma_ex.c ****     __HAL_DMA_CLEAR_FLAG (hdma, __HAL_DMA_GET_TE_FLAG_INDEX(hdma));
 666              		.loc 1 214 0 discriminator 9
 667 0358 A2F58962 		sub	r2, r2, #1096
 668 035c 9342     		cmp	r3, r2
 669 035e 26D0     		beq	.L117
 214:Drivers/STM32F4xx_HAL_Driver/Src/stm32f4xx_hal_dma_ex.c ****     __HAL_DMA_CLEAR_FLAG (hdma, __HAL_DMA_GET_TE_FLAG_INDEX(hdma));
 670              		.loc 1 214 0 discriminator 11
 671 0360 02F58062 		add	r2, r2, #1024
 672 0364 9342     		cmp	r3, r2
 673 0366 25D0     		beq	.L118
ARM GAS  C:\Users\shun2\AppData\Local\Temp\ccpVPaCt.s 			page 20


 214:Drivers/STM32F4xx_HAL_Driver/Src/stm32f4xx_hal_dma_ex.c ****     __HAL_DMA_CLEAR_FLAG (hdma, __HAL_DMA_GET_TE_FLAG_INDEX(hdma));
 674              		.loc 1 214 0 discriminator 13
 675 0368 A2F56872 		sub	r2, r2, #928
 676 036c 9342     		cmp	r3, r2
 677 036e 24D0     		beq	.L119
 214:Drivers/STM32F4xx_HAL_Driver/Src/stm32f4xx_hal_dma_ex.c ****     __HAL_DMA_CLEAR_FLAG (hdma, __HAL_DMA_GET_TE_FLAG_INDEX(hdma));
 678              		.loc 1 214 0 discriminator 15
 679 0370 02F58062 		add	r2, r2, #1024
 680 0374 9342     		cmp	r3, r2
 681 0376 23D0     		beq	.L120
 214:Drivers/STM32F4xx_HAL_Driver/Src/stm32f4xx_hal_dma_ex.c ****     __HAL_DMA_CLEAR_FLAG (hdma, __HAL_DMA_GET_TE_FLAG_INDEX(hdma));
 682              		.loc 1 214 0 discriminator 17
 683 0378 A2F58962 		sub	r2, r2, #1096
 684 037c 9342     		cmp	r3, r2
 685 037e 22D0     		beq	.L121
 214:Drivers/STM32F4xx_HAL_Driver/Src/stm32f4xx_hal_dma_ex.c ****     __HAL_DMA_CLEAR_FLAG (hdma, __HAL_DMA_GET_TE_FLAG_INDEX(hdma));
 686              		.loc 1 214 0 discriminator 19
 687 0380 02F58062 		add	r2, r2, #1024
 688 0384 9342     		cmp	r3, r2
 689 0386 21D0     		beq	.L122
 214:Drivers/STM32F4xx_HAL_Driver/Src/stm32f4xx_hal_dma_ex.c ****     __HAL_DMA_CLEAR_FLAG (hdma, __HAL_DMA_GET_TE_FLAG_INDEX(hdma));
 690              		.loc 1 214 0 discriminator 21
 691 0388 A2F56872 		sub	r2, r2, #928
 692 038c 9342     		cmp	r3, r2
 693 038e 20D0     		beq	.L123
 214:Drivers/STM32F4xx_HAL_Driver/Src/stm32f4xx_hal_dma_ex.c ****     __HAL_DMA_CLEAR_FLAG (hdma, __HAL_DMA_GET_TE_FLAG_INDEX(hdma));
 694              		.loc 1 214 0 discriminator 23
 695 0390 02F58062 		add	r2, r2, #1024
 696 0394 9342     		cmp	r3, r2
 697 0396 1FD1     		bne	.L124
 214:Drivers/STM32F4xx_HAL_Driver/Src/stm32f4xx_hal_dma_ex.c ****     __HAL_DMA_CLEAR_FLAG (hdma, __HAL_DMA_GET_TE_FLAG_INDEX(hdma));
 698              		.loc 1 214 0
 699 0398 4FF48013 		mov	r3, #1048576
 700 039c 1EE0     		b	.L27
 701              	.L113:
 702 039e 1023     		movs	r3, #16
 703 03a0 1CE0     		b	.L27
 704              	.L114:
 705 03a2 1023     		movs	r3, #16
 706 03a4 1AE0     		b	.L27
 707              	.L115:
 708 03a6 1023     		movs	r3, #16
 709 03a8 18E0     		b	.L27
 710              	.L116:
 711 03aa 1023     		movs	r3, #16
 712 03ac 16E0     		b	.L27
 713              	.L117:
 714 03ae 4FF48063 		mov	r3, #1024
 715 03b2 13E0     		b	.L27
 716              	.L118:
 717 03b4 4FF48063 		mov	r3, #1024
 718 03b8 10E0     		b	.L27
 719              	.L119:
 720 03ba 4FF48063 		mov	r3, #1024
 721 03be 0DE0     		b	.L27
 722              	.L120:
 723 03c0 4FF48063 		mov	r3, #1024
ARM GAS  C:\Users\shun2\AppData\Local\Temp\ccpVPaCt.s 			page 21


 724 03c4 0AE0     		b	.L27
 725              	.L121:
 726 03c6 4FF48013 		mov	r3, #1048576
 727 03ca 07E0     		b	.L27
 728              	.L122:
 729 03cc 4FF48013 		mov	r3, #1048576
 730 03d0 04E0     		b	.L27
 731              	.L123:
 732 03d2 4FF48013 		mov	r3, #1048576
 733 03d6 01E0     		b	.L27
 734              	.L124:
 735 03d8 4FF08063 		mov	r3, #67108864
 736              	.L27:
 214:Drivers/STM32F4xx_HAL_Driver/Src/stm32f4xx_hal_dma_ex.c ****     __HAL_DMA_CLEAR_FLAG (hdma, __HAL_DMA_GET_TE_FLAG_INDEX(hdma));
 737              		.loc 1 214 0 discriminator 50
 738 03dc 814A     		ldr	r2, .L308+8
 739 03de D360     		str	r3, [r2, #12]
 740 03e0 0CE1     		b	.L28
 741              	.L26:
 214:Drivers/STM32F4xx_HAL_Driver/Src/stm32f4xx_hal_dma_ex.c ****     __HAL_DMA_CLEAR_FLAG (hdma, __HAL_DMA_GET_TE_FLAG_INDEX(hdma));
 742              		.loc 1 214 0 discriminator 2
 743 03e2 814A     		ldr	r2, .L308+12
 744 03e4 9342     		cmp	r3, r2
 745 03e6 53D9     		bls	.L29
 214:Drivers/STM32F4xx_HAL_Driver/Src/stm32f4xx_hal_dma_ex.c ****     __HAL_DMA_CLEAR_FLAG (hdma, __HAL_DMA_GET_TE_FLAG_INDEX(hdma));
 746              		.loc 1 214 0 discriminator 51
 747 03e8 A83A     		subs	r2, r2, #168
 748 03ea 9342     		cmp	r3, r2
 749 03ec 2ED0     		beq	.L125
 214:Drivers/STM32F4xx_HAL_Driver/Src/stm32f4xx_hal_dma_ex.c ****     __HAL_DMA_CLEAR_FLAG (hdma, __HAL_DMA_GET_TE_FLAG_INDEX(hdma));
 750              		.loc 1 214 0 discriminator 53
 751 03ee 02F58062 		add	r2, r2, #1024
 752 03f2 9342     		cmp	r3, r2
 753 03f4 2CD0     		beq	.L126
 214:Drivers/STM32F4xx_HAL_Driver/Src/stm32f4xx_hal_dma_ex.c ****     __HAL_DMA_CLEAR_FLAG (hdma, __HAL_DMA_GET_TE_FLAG_INDEX(hdma));
 754              		.loc 1 214 0 discriminator 55
 755 03f6 A2F56872 		sub	r2, r2, #928
 756 03fa 9342     		cmp	r3, r2
 757 03fc 2AD0     		beq	.L127
 214:Drivers/STM32F4xx_HAL_Driver/Src/stm32f4xx_hal_dma_ex.c ****     __HAL_DMA_CLEAR_FLAG (hdma, __HAL_DMA_GET_TE_FLAG_INDEX(hdma));
 758              		.loc 1 214 0 discriminator 57
 759 03fe 02F58062 		add	r2, r2, #1024
 760 0402 9342     		cmp	r3, r2
 761 0404 28D0     		beq	.L128
 214:Drivers/STM32F4xx_HAL_Driver/Src/stm32f4xx_hal_dma_ex.c ****     __HAL_DMA_CLEAR_FLAG (hdma, __HAL_DMA_GET_TE_FLAG_INDEX(hdma));
 762              		.loc 1 214 0 discriminator 59
 763 0406 A2F58962 		sub	r2, r2, #1096
 764 040a 9342     		cmp	r3, r2
 765 040c 26D0     		beq	.L129
 214:Drivers/STM32F4xx_HAL_Driver/Src/stm32f4xx_hal_dma_ex.c ****     __HAL_DMA_CLEAR_FLAG (hdma, __HAL_DMA_GET_TE_FLAG_INDEX(hdma));
 766              		.loc 1 214 0 discriminator 61
 767 040e 02F58062 		add	r2, r2, #1024
 768 0412 9342     		cmp	r3, r2
 769 0414 25D0     		beq	.L130
 214:Drivers/STM32F4xx_HAL_Driver/Src/stm32f4xx_hal_dma_ex.c ****     __HAL_DMA_CLEAR_FLAG (hdma, __HAL_DMA_GET_TE_FLAG_INDEX(hdma));
 770              		.loc 1 214 0 discriminator 63
 771 0416 A2F56872 		sub	r2, r2, #928
ARM GAS  C:\Users\shun2\AppData\Local\Temp\ccpVPaCt.s 			page 22


 772 041a 9342     		cmp	r3, r2
 773 041c 24D0     		beq	.L131
 214:Drivers/STM32F4xx_HAL_Driver/Src/stm32f4xx_hal_dma_ex.c ****     __HAL_DMA_CLEAR_FLAG (hdma, __HAL_DMA_GET_TE_FLAG_INDEX(hdma));
 774              		.loc 1 214 0 discriminator 65
 775 041e 02F58062 		add	r2, r2, #1024
 776 0422 9342     		cmp	r3, r2
 777 0424 23D0     		beq	.L132
 214:Drivers/STM32F4xx_HAL_Driver/Src/stm32f4xx_hal_dma_ex.c ****     __HAL_DMA_CLEAR_FLAG (hdma, __HAL_DMA_GET_TE_FLAG_INDEX(hdma));
 778              		.loc 1 214 0 discriminator 67
 779 0426 A2F58962 		sub	r2, r2, #1096
 780 042a 9342     		cmp	r3, r2
 781 042c 22D0     		beq	.L133
 214:Drivers/STM32F4xx_HAL_Driver/Src/stm32f4xx_hal_dma_ex.c ****     __HAL_DMA_CLEAR_FLAG (hdma, __HAL_DMA_GET_TE_FLAG_INDEX(hdma));
 782              		.loc 1 214 0 discriminator 69
 783 042e 02F58062 		add	r2, r2, #1024
 784 0432 9342     		cmp	r3, r2
 785 0434 21D0     		beq	.L134
 214:Drivers/STM32F4xx_HAL_Driver/Src/stm32f4xx_hal_dma_ex.c ****     __HAL_DMA_CLEAR_FLAG (hdma, __HAL_DMA_GET_TE_FLAG_INDEX(hdma));
 786              		.loc 1 214 0 discriminator 71
 787 0436 A2F56872 		sub	r2, r2, #928
 788 043a 9342     		cmp	r3, r2
 789 043c 20D0     		beq	.L135
 214:Drivers/STM32F4xx_HAL_Driver/Src/stm32f4xx_hal_dma_ex.c ****     __HAL_DMA_CLEAR_FLAG (hdma, __HAL_DMA_GET_TE_FLAG_INDEX(hdma));
 790              		.loc 1 214 0 discriminator 73
 791 043e 02F58062 		add	r2, r2, #1024
 792 0442 9342     		cmp	r3, r2
 793 0444 1FD1     		bne	.L136
 214:Drivers/STM32F4xx_HAL_Driver/Src/stm32f4xx_hal_dma_ex.c ****     __HAL_DMA_CLEAR_FLAG (hdma, __HAL_DMA_GET_TE_FLAG_INDEX(hdma));
 794              		.loc 1 214 0
 795 0446 4FF48013 		mov	r3, #1048576
 796 044a 1EE0     		b	.L30
 797              	.L125:
 798 044c 1023     		movs	r3, #16
 799 044e 1CE0     		b	.L30
 800              	.L126:
 801 0450 1023     		movs	r3, #16
 802 0452 1AE0     		b	.L30
 803              	.L127:
 804 0454 1023     		movs	r3, #16
 805 0456 18E0     		b	.L30
 806              	.L128:
 807 0458 1023     		movs	r3, #16
 808 045a 16E0     		b	.L30
 809              	.L129:
 810 045c 4FF48063 		mov	r3, #1024
 811 0460 13E0     		b	.L30
 812              	.L130:
 813 0462 4FF48063 		mov	r3, #1024
 814 0466 10E0     		b	.L30
 815              	.L131:
 816 0468 4FF48063 		mov	r3, #1024
 817 046c 0DE0     		b	.L30
 818              	.L132:
 819 046e 4FF48063 		mov	r3, #1024
 820 0472 0AE0     		b	.L30
 821              	.L133:
 822 0474 4FF48013 		mov	r3, #1048576
ARM GAS  C:\Users\shun2\AppData\Local\Temp\ccpVPaCt.s 			page 23


 823 0478 07E0     		b	.L30
 824              	.L134:
 825 047a 4FF48013 		mov	r3, #1048576
 826 047e 04E0     		b	.L30
 827              	.L135:
 828 0480 4FF48013 		mov	r3, #1048576
 829 0484 01E0     		b	.L30
 830              	.L136:
 831 0486 4FF08063 		mov	r3, #67108864
 832              	.L30:
 214:Drivers/STM32F4xx_HAL_Driver/Src/stm32f4xx_hal_dma_ex.c ****     __HAL_DMA_CLEAR_FLAG (hdma, __HAL_DMA_GET_TE_FLAG_INDEX(hdma));
 833              		.loc 1 214 0 discriminator 100
 834 048a 564A     		ldr	r2, .L308+8
 835 048c 9360     		str	r3, [r2, #8]
 836 048e B5E0     		b	.L28
 837              	.L29:
 214:Drivers/STM32F4xx_HAL_Driver/Src/stm32f4xx_hal_dma_ex.c ****     __HAL_DMA_CLEAR_FLAG (hdma, __HAL_DMA_GET_TE_FLAG_INDEX(hdma));
 838              		.loc 1 214 0 discriminator 52
 839 0490 564A     		ldr	r2, .L308+16
 840 0492 9342     		cmp	r3, r2
 841 0494 53D9     		bls	.L32
 214:Drivers/STM32F4xx_HAL_Driver/Src/stm32f4xx_hal_dma_ex.c ****     __HAL_DMA_CLEAR_FLAG (hdma, __HAL_DMA_GET_TE_FLAG_INDEX(hdma));
 842              		.loc 1 214 0 discriminator 102
 843 0496 483A     		subs	r2, r2, #72
 844 0498 9342     		cmp	r3, r2
 845 049a 2ED0     		beq	.L137
 214:Drivers/STM32F4xx_HAL_Driver/Src/stm32f4xx_hal_dma_ex.c ****     __HAL_DMA_CLEAR_FLAG (hdma, __HAL_DMA_GET_TE_FLAG_INDEX(hdma));
 846              		.loc 1 214 0 discriminator 104
 847 049c 02F58062 		add	r2, r2, #1024
 848 04a0 9342     		cmp	r3, r2
 849 04a2 2CD0     		beq	.L138
 214:Drivers/STM32F4xx_HAL_Driver/Src/stm32f4xx_hal_dma_ex.c ****     __HAL_DMA_CLEAR_FLAG (hdma, __HAL_DMA_GET_TE_FLAG_INDEX(hdma));
 850              		.loc 1 214 0 discriminator 106
 851 04a4 A2F56872 		sub	r2, r2, #928
 852 04a8 9342     		cmp	r3, r2
 853 04aa 2AD0     		beq	.L139
 214:Drivers/STM32F4xx_HAL_Driver/Src/stm32f4xx_hal_dma_ex.c ****     __HAL_DMA_CLEAR_FLAG (hdma, __HAL_DMA_GET_TE_FLAG_INDEX(hdma));
 854              		.loc 1 214 0 discriminator 108
 855 04ac 02F58062 		add	r2, r2, #1024
 856 04b0 9342     		cmp	r3, r2
 857 04b2 28D0     		beq	.L140
 214:Drivers/STM32F4xx_HAL_Driver/Src/stm32f4xx_hal_dma_ex.c ****     __HAL_DMA_CLEAR_FLAG (hdma, __HAL_DMA_GET_TE_FLAG_INDEX(hdma));
 858              		.loc 1 214 0 discriminator 110
 859 04b4 A2F58962 		sub	r2, r2, #1096
 860 04b8 9342     		cmp	r3, r2
 861 04ba 26D0     		beq	.L141
 214:Drivers/STM32F4xx_HAL_Driver/Src/stm32f4xx_hal_dma_ex.c ****     __HAL_DMA_CLEAR_FLAG (hdma, __HAL_DMA_GET_TE_FLAG_INDEX(hdma));
 862              		.loc 1 214 0 discriminator 112
 863 04bc 02F58062 		add	r2, r2, #1024
 864 04c0 9342     		cmp	r3, r2
 865 04c2 25D0     		beq	.L142
 214:Drivers/STM32F4xx_HAL_Driver/Src/stm32f4xx_hal_dma_ex.c ****     __HAL_DMA_CLEAR_FLAG (hdma, __HAL_DMA_GET_TE_FLAG_INDEX(hdma));
 866              		.loc 1 214 0 discriminator 114
 867 04c4 A2F56872 		sub	r2, r2, #928
 868 04c8 9342     		cmp	r3, r2
 869 04ca 24D0     		beq	.L143
 214:Drivers/STM32F4xx_HAL_Driver/Src/stm32f4xx_hal_dma_ex.c ****     __HAL_DMA_CLEAR_FLAG (hdma, __HAL_DMA_GET_TE_FLAG_INDEX(hdma));
ARM GAS  C:\Users\shun2\AppData\Local\Temp\ccpVPaCt.s 			page 24


 870              		.loc 1 214 0 discriminator 116
 871 04cc 02F58062 		add	r2, r2, #1024
 872 04d0 9342     		cmp	r3, r2
 873 04d2 23D0     		beq	.L144
 214:Drivers/STM32F4xx_HAL_Driver/Src/stm32f4xx_hal_dma_ex.c ****     __HAL_DMA_CLEAR_FLAG (hdma, __HAL_DMA_GET_TE_FLAG_INDEX(hdma));
 874              		.loc 1 214 0 discriminator 118
 875 04d4 A2F58962 		sub	r2, r2, #1096
 876 04d8 9342     		cmp	r3, r2
 877 04da 22D0     		beq	.L145
 214:Drivers/STM32F4xx_HAL_Driver/Src/stm32f4xx_hal_dma_ex.c ****     __HAL_DMA_CLEAR_FLAG (hdma, __HAL_DMA_GET_TE_FLAG_INDEX(hdma));
 878              		.loc 1 214 0 discriminator 120
 879 04dc 02F58062 		add	r2, r2, #1024
 880 04e0 9342     		cmp	r3, r2
 881 04e2 21D0     		beq	.L146
 214:Drivers/STM32F4xx_HAL_Driver/Src/stm32f4xx_hal_dma_ex.c ****     __HAL_DMA_CLEAR_FLAG (hdma, __HAL_DMA_GET_TE_FLAG_INDEX(hdma));
 882              		.loc 1 214 0 discriminator 122
 883 04e4 A2F56872 		sub	r2, r2, #928
 884 04e8 9342     		cmp	r3, r2
 885 04ea 20D0     		beq	.L147
 214:Drivers/STM32F4xx_HAL_Driver/Src/stm32f4xx_hal_dma_ex.c ****     __HAL_DMA_CLEAR_FLAG (hdma, __HAL_DMA_GET_TE_FLAG_INDEX(hdma));
 886              		.loc 1 214 0 discriminator 124
 887 04ec 02F58062 		add	r2, r2, #1024
 888 04f0 9342     		cmp	r3, r2
 889 04f2 1FD1     		bne	.L148
 214:Drivers/STM32F4xx_HAL_Driver/Src/stm32f4xx_hal_dma_ex.c ****     __HAL_DMA_CLEAR_FLAG (hdma, __HAL_DMA_GET_TE_FLAG_INDEX(hdma));
 890              		.loc 1 214 0
 891 04f4 4FF48013 		mov	r3, #1048576
 892 04f8 1EE0     		b	.L33
 893              	.L137:
 894 04fa 1023     		movs	r3, #16
 895 04fc 1CE0     		b	.L33
 896              	.L138:
 897 04fe 1023     		movs	r3, #16
 898 0500 1AE0     		b	.L33
 899              	.L139:
 900 0502 1023     		movs	r3, #16
 901 0504 18E0     		b	.L33
 902              	.L140:
 903 0506 1023     		movs	r3, #16
 904 0508 16E0     		b	.L33
 905              	.L141:
 906 050a 4FF48063 		mov	r3, #1024
 907 050e 13E0     		b	.L33
 908              	.L142:
 909 0510 4FF48063 		mov	r3, #1024
 910 0514 10E0     		b	.L33
 911              	.L143:
 912 0516 4FF48063 		mov	r3, #1024
 913 051a 0DE0     		b	.L33
 914              	.L144:
 915 051c 4FF48063 		mov	r3, #1024
 916 0520 0AE0     		b	.L33
 917              	.L145:
 918 0522 4FF48013 		mov	r3, #1048576
 919 0526 07E0     		b	.L33
 920              	.L146:
 921 0528 4FF48013 		mov	r3, #1048576
ARM GAS  C:\Users\shun2\AppData\Local\Temp\ccpVPaCt.s 			page 25


 922 052c 04E0     		b	.L33
 923              	.L147:
 924 052e 4FF48013 		mov	r3, #1048576
 925 0532 01E0     		b	.L33
 926              	.L148:
 927 0534 4FF08063 		mov	r3, #67108864
 928              	.L33:
 214:Drivers/STM32F4xx_HAL_Driver/Src/stm32f4xx_hal_dma_ex.c ****     __HAL_DMA_CLEAR_FLAG (hdma, __HAL_DMA_GET_TE_FLAG_INDEX(hdma));
 929              		.loc 1 214 0 discriminator 151
 930 0538 284A     		ldr	r2, .L308
 931 053a D360     		str	r3, [r2, #12]
 932 053c 5EE0     		b	.L28
 933              	.L32:
 214:Drivers/STM32F4xx_HAL_Driver/Src/stm32f4xx_hal_dma_ex.c ****     __HAL_DMA_CLEAR_FLAG (hdma, __HAL_DMA_GET_TE_FLAG_INDEX(hdma));
 934              		.loc 1 214 0 discriminator 103
 935 053e 2C4A     		ldr	r2, .L308+20
 936 0540 9342     		cmp	r3, r2
 937 0542 2ED0     		beq	.L149
 214:Drivers/STM32F4xx_HAL_Driver/Src/stm32f4xx_hal_dma_ex.c ****     __HAL_DMA_CLEAR_FLAG (hdma, __HAL_DMA_GET_TE_FLAG_INDEX(hdma));
 938              		.loc 1 214 0 discriminator 153
 939 0544 02F58062 		add	r2, r2, #1024
 940 0548 9342     		cmp	r3, r2
 941 054a 2CD0     		beq	.L150
 214:Drivers/STM32F4xx_HAL_Driver/Src/stm32f4xx_hal_dma_ex.c ****     __HAL_DMA_CLEAR_FLAG (hdma, __HAL_DMA_GET_TE_FLAG_INDEX(hdma));
 942              		.loc 1 214 0 discriminator 155
 943 054c A2F56872 		sub	r2, r2, #928
 944 0550 9342     		cmp	r3, r2
 945 0552 2AD0     		beq	.L151
 214:Drivers/STM32F4xx_HAL_Driver/Src/stm32f4xx_hal_dma_ex.c ****     __HAL_DMA_CLEAR_FLAG (hdma, __HAL_DMA_GET_TE_FLAG_INDEX(hdma));
 946              		.loc 1 214 0 discriminator 157
 947 0554 02F58062 		add	r2, r2, #1024
 948 0558 9342     		cmp	r3, r2
 949 055a 28D0     		beq	.L152
 214:Drivers/STM32F4xx_HAL_Driver/Src/stm32f4xx_hal_dma_ex.c ****     __HAL_DMA_CLEAR_FLAG (hdma, __HAL_DMA_GET_TE_FLAG_INDEX(hdma));
 950              		.loc 1 214 0 discriminator 159
 951 055c A2F58962 		sub	r2, r2, #1096
 952 0560 9342     		cmp	r3, r2
 953 0562 26D0     		beq	.L153
 214:Drivers/STM32F4xx_HAL_Driver/Src/stm32f4xx_hal_dma_ex.c ****     __HAL_DMA_CLEAR_FLAG (hdma, __HAL_DMA_GET_TE_FLAG_INDEX(hdma));
 954              		.loc 1 214 0 discriminator 161
 955 0564 02F58062 		add	r2, r2, #1024
 956 0568 9342     		cmp	r3, r2
 957 056a 25D0     		beq	.L154
 214:Drivers/STM32F4xx_HAL_Driver/Src/stm32f4xx_hal_dma_ex.c ****     __HAL_DMA_CLEAR_FLAG (hdma, __HAL_DMA_GET_TE_FLAG_INDEX(hdma));
 958              		.loc 1 214 0 discriminator 163
 959 056c A2F56872 		sub	r2, r2, #928
 960 0570 9342     		cmp	r3, r2
 961 0572 24D0     		beq	.L155
 214:Drivers/STM32F4xx_HAL_Driver/Src/stm32f4xx_hal_dma_ex.c ****     __HAL_DMA_CLEAR_FLAG (hdma, __HAL_DMA_GET_TE_FLAG_INDEX(hdma));
 962              		.loc 1 214 0 discriminator 165
 963 0574 02F58062 		add	r2, r2, #1024
 964 0578 9342     		cmp	r3, r2
 965 057a 23D0     		beq	.L156
 214:Drivers/STM32F4xx_HAL_Driver/Src/stm32f4xx_hal_dma_ex.c ****     __HAL_DMA_CLEAR_FLAG (hdma, __HAL_DMA_GET_TE_FLAG_INDEX(hdma));
 966              		.loc 1 214 0 discriminator 167
 967 057c A2F58962 		sub	r2, r2, #1096
 968 0580 9342     		cmp	r3, r2
ARM GAS  C:\Users\shun2\AppData\Local\Temp\ccpVPaCt.s 			page 26


 969 0582 22D0     		beq	.L157
 214:Drivers/STM32F4xx_HAL_Driver/Src/stm32f4xx_hal_dma_ex.c ****     __HAL_DMA_CLEAR_FLAG (hdma, __HAL_DMA_GET_TE_FLAG_INDEX(hdma));
 970              		.loc 1 214 0 discriminator 169
 971 0584 02F58062 		add	r2, r2, #1024
 972 0588 9342     		cmp	r3, r2
 973 058a 21D0     		beq	.L158
 214:Drivers/STM32F4xx_HAL_Driver/Src/stm32f4xx_hal_dma_ex.c ****     __HAL_DMA_CLEAR_FLAG (hdma, __HAL_DMA_GET_TE_FLAG_INDEX(hdma));
 974              		.loc 1 214 0 discriminator 171
 975 058c A2F56872 		sub	r2, r2, #928
 976 0590 9342     		cmp	r3, r2
 977 0592 20D0     		beq	.L159
 214:Drivers/STM32F4xx_HAL_Driver/Src/stm32f4xx_hal_dma_ex.c ****     __HAL_DMA_CLEAR_FLAG (hdma, __HAL_DMA_GET_TE_FLAG_INDEX(hdma));
 978              		.loc 1 214 0 discriminator 173
 979 0594 02F58062 		add	r2, r2, #1024
 980 0598 9342     		cmp	r3, r2
 981 059a 2BD1     		bne	.L160
 214:Drivers/STM32F4xx_HAL_Driver/Src/stm32f4xx_hal_dma_ex.c ****     __HAL_DMA_CLEAR_FLAG (hdma, __HAL_DMA_GET_TE_FLAG_INDEX(hdma));
 982              		.loc 1 214 0
 983 059c 4FF48013 		mov	r3, #1048576
 984 05a0 2AE0     		b	.L34
 985              	.L149:
 986 05a2 1023     		movs	r3, #16
 987 05a4 28E0     		b	.L34
 988              	.L150:
 989 05a6 1023     		movs	r3, #16
 990 05a8 26E0     		b	.L34
 991              	.L151:
 992 05aa 1023     		movs	r3, #16
 993 05ac 24E0     		b	.L34
 994              	.L152:
 995 05ae 1023     		movs	r3, #16
 996 05b0 22E0     		b	.L34
 997              	.L153:
 998 05b2 4FF48063 		mov	r3, #1024
 999 05b6 1FE0     		b	.L34
 1000              	.L154:
 1001 05b8 4FF48063 		mov	r3, #1024
 1002 05bc 1CE0     		b	.L34
 1003              	.L155:
 1004 05be 4FF48063 		mov	r3, #1024
 1005 05c2 19E0     		b	.L34
 1006              	.L156:
 1007 05c4 4FF48063 		mov	r3, #1024
 1008 05c8 16E0     		b	.L34
 1009              	.L157:
 1010 05ca 4FF48013 		mov	r3, #1048576
 1011 05ce 13E0     		b	.L34
 1012              	.L158:
 1013 05d0 4FF48013 		mov	r3, #1048576
 1014 05d4 10E0     		b	.L34
 1015              	.L159:
 1016 05d6 4FF48013 		mov	r3, #1048576
 1017 05da 0DE0     		b	.L34
 1018              	.L309:
 1019              		.align	2
 1020              	.L308:
 1021 05dc 00600240 		.word	1073897472
ARM GAS  C:\Users\shun2\AppData\Local\Temp\ccpVPaCt.s 			page 27


 1022 05e0 58640240 		.word	1073898584
 1023 05e4 00640240 		.word	1073898496
 1024 05e8 B8600240 		.word	1073897656
 1025 05ec 58600240 		.word	1073897560
 1026 05f0 10600240 		.word	1073897488
 1027              	.L160:
 1028 05f4 4FF08063 		mov	r3, #67108864
 1029              	.L34:
 214:Drivers/STM32F4xx_HAL_Driver/Src/stm32f4xx_hal_dma_ex.c ****     __HAL_DMA_CLEAR_FLAG (hdma, __HAL_DMA_GET_TE_FLAG_INDEX(hdma));
 1030              		.loc 1 214 0 discriminator 200
 1031 05f8 AB4A     		ldr	r2, .L310
 1032 05fa 9360     		str	r3, [r2, #8]
 1033              	.L28:
 215:Drivers/STM32F4xx_HAL_Driver/Src/stm32f4xx_hal_dma_ex.c ****     __HAL_DMA_CLEAR_FLAG (hdma, __HAL_DMA_GET_DME_FLAG_INDEX(hdma));
 1034              		.loc 1 215 0 is_stmt 1
 1035 05fc 2368     		ldr	r3, [r4]
 1036 05fe AB4A     		ldr	r2, .L310+4
 1037 0600 9342     		cmp	r3, r2
 1038 0602 54D9     		bls	.L35
 215:Drivers/STM32F4xx_HAL_Driver/Src/stm32f4xx_hal_dma_ex.c ****     __HAL_DMA_CLEAR_FLAG (hdma, __HAL_DMA_GET_DME_FLAG_INDEX(hdma));
 1039              		.loc 1 215 0 is_stmt 0 discriminator 1
 1040 0604 A2F58962 		sub	r2, r2, #1096
 1041 0608 9342     		cmp	r3, r2
 1042 060a 2ED0     		beq	.L161
 215:Drivers/STM32F4xx_HAL_Driver/Src/stm32f4xx_hal_dma_ex.c ****     __HAL_DMA_CLEAR_FLAG (hdma, __HAL_DMA_GET_DME_FLAG_INDEX(hdma));
 1043              		.loc 1 215 0 discriminator 3
 1044 060c 02F58062 		add	r2, r2, #1024
 1045 0610 9342     		cmp	r3, r2
 1046 0612 2CD0     		beq	.L162
 215:Drivers/STM32F4xx_HAL_Driver/Src/stm32f4xx_hal_dma_ex.c ****     __HAL_DMA_CLEAR_FLAG (hdma, __HAL_DMA_GET_DME_FLAG_INDEX(hdma));
 1047              		.loc 1 215 0 discriminator 5
 1048 0614 A2F56872 		sub	r2, r2, #928
 1049 0618 9342     		cmp	r3, r2
 1050 061a 2AD0     		beq	.L163
 215:Drivers/STM32F4xx_HAL_Driver/Src/stm32f4xx_hal_dma_ex.c ****     __HAL_DMA_CLEAR_FLAG (hdma, __HAL_DMA_GET_DME_FLAG_INDEX(hdma));
 1051              		.loc 1 215 0 discriminator 7
 1052 061c 02F58062 		add	r2, r2, #1024
 1053 0620 9342     		cmp	r3, r2
 1054 0622 28D0     		beq	.L164
 215:Drivers/STM32F4xx_HAL_Driver/Src/stm32f4xx_hal_dma_ex.c ****     __HAL_DMA_CLEAR_FLAG (hdma, __HAL_DMA_GET_DME_FLAG_INDEX(hdma));
 1055              		.loc 1 215 0 discriminator 9
 1056 0624 A2F58962 		sub	r2, r2, #1096
 1057 0628 9342     		cmp	r3, r2
 1058 062a 26D0     		beq	.L165
 215:Drivers/STM32F4xx_HAL_Driver/Src/stm32f4xx_hal_dma_ex.c ****     __HAL_DMA_CLEAR_FLAG (hdma, __HAL_DMA_GET_DME_FLAG_INDEX(hdma));
 1059              		.loc 1 215 0 discriminator 11
 1060 062c 02F58062 		add	r2, r2, #1024
 1061 0630 9342     		cmp	r3, r2
 1062 0632 25D0     		beq	.L166
 215:Drivers/STM32F4xx_HAL_Driver/Src/stm32f4xx_hal_dma_ex.c ****     __HAL_DMA_CLEAR_FLAG (hdma, __HAL_DMA_GET_DME_FLAG_INDEX(hdma));
 1063              		.loc 1 215 0 discriminator 13
 1064 0634 A2F56872 		sub	r2, r2, #928
 1065 0638 9342     		cmp	r3, r2
 1066 063a 24D0     		beq	.L167
 215:Drivers/STM32F4xx_HAL_Driver/Src/stm32f4xx_hal_dma_ex.c ****     __HAL_DMA_CLEAR_FLAG (hdma, __HAL_DMA_GET_DME_FLAG_INDEX(hdma));
 1067              		.loc 1 215 0 discriminator 15
 1068 063c 02F58062 		add	r2, r2, #1024
ARM GAS  C:\Users\shun2\AppData\Local\Temp\ccpVPaCt.s 			page 28


 1069 0640 9342     		cmp	r3, r2
 1070 0642 23D0     		beq	.L168
 215:Drivers/STM32F4xx_HAL_Driver/Src/stm32f4xx_hal_dma_ex.c ****     __HAL_DMA_CLEAR_FLAG (hdma, __HAL_DMA_GET_DME_FLAG_INDEX(hdma));
 1071              		.loc 1 215 0 discriminator 17
 1072 0644 A2F58962 		sub	r2, r2, #1096
 1073 0648 9342     		cmp	r3, r2
 1074 064a 22D0     		beq	.L169
 215:Drivers/STM32F4xx_HAL_Driver/Src/stm32f4xx_hal_dma_ex.c ****     __HAL_DMA_CLEAR_FLAG (hdma, __HAL_DMA_GET_DME_FLAG_INDEX(hdma));
 1075              		.loc 1 215 0 discriminator 19
 1076 064c 02F58062 		add	r2, r2, #1024
 1077 0650 9342     		cmp	r3, r2
 1078 0652 21D0     		beq	.L170
 215:Drivers/STM32F4xx_HAL_Driver/Src/stm32f4xx_hal_dma_ex.c ****     __HAL_DMA_CLEAR_FLAG (hdma, __HAL_DMA_GET_DME_FLAG_INDEX(hdma));
 1079              		.loc 1 215 0 discriminator 21
 1080 0654 A2F56872 		sub	r2, r2, #928
 1081 0658 9342     		cmp	r3, r2
 1082 065a 20D0     		beq	.L171
 215:Drivers/STM32F4xx_HAL_Driver/Src/stm32f4xx_hal_dma_ex.c ****     __HAL_DMA_CLEAR_FLAG (hdma, __HAL_DMA_GET_DME_FLAG_INDEX(hdma));
 1083              		.loc 1 215 0 discriminator 23
 1084 065c 02F58062 		add	r2, r2, #1024
 1085 0660 9342     		cmp	r3, r2
 1086 0662 1FD1     		bne	.L172
 215:Drivers/STM32F4xx_HAL_Driver/Src/stm32f4xx_hal_dma_ex.c ****     __HAL_DMA_CLEAR_FLAG (hdma, __HAL_DMA_GET_DME_FLAG_INDEX(hdma));
 1087              		.loc 1 215 0
 1088 0664 4FF40023 		mov	r3, #524288
 1089 0668 1EE0     		b	.L36
 1090              	.L161:
 1091 066a 0823     		movs	r3, #8
 1092 066c 1CE0     		b	.L36
 1093              	.L162:
 1094 066e 0823     		movs	r3, #8
 1095 0670 1AE0     		b	.L36
 1096              	.L163:
 1097 0672 0823     		movs	r3, #8
 1098 0674 18E0     		b	.L36
 1099              	.L164:
 1100 0676 0823     		movs	r3, #8
 1101 0678 16E0     		b	.L36
 1102              	.L165:
 1103 067a 4FF40073 		mov	r3, #512
 1104 067e 13E0     		b	.L36
 1105              	.L166:
 1106 0680 4FF40073 		mov	r3, #512
 1107 0684 10E0     		b	.L36
 1108              	.L167:
 1109 0686 4FF40073 		mov	r3, #512
 1110 068a 0DE0     		b	.L36
 1111              	.L168:
 1112 068c 4FF40073 		mov	r3, #512
 1113 0690 0AE0     		b	.L36
 1114              	.L169:
 1115 0692 4FF40023 		mov	r3, #524288
 1116 0696 07E0     		b	.L36
 1117              	.L170:
 1118 0698 4FF40023 		mov	r3, #524288
 1119 069c 04E0     		b	.L36
 1120              	.L171:
ARM GAS  C:\Users\shun2\AppData\Local\Temp\ccpVPaCt.s 			page 29


 1121 069e 4FF40023 		mov	r3, #524288
 1122 06a2 01E0     		b	.L36
 1123              	.L172:
 1124 06a4 4FF00073 		mov	r3, #33554432
 1125              	.L36:
 215:Drivers/STM32F4xx_HAL_Driver/Src/stm32f4xx_hal_dma_ex.c ****     __HAL_DMA_CLEAR_FLAG (hdma, __HAL_DMA_GET_DME_FLAG_INDEX(hdma));
 1126              		.loc 1 215 0 discriminator 50
 1127 06a8 814A     		ldr	r2, .L310+8
 1128 06aa D360     		str	r3, [r2, #12]
 1129 06ac 0CE1     		b	.L37
 1130              	.L35:
 215:Drivers/STM32F4xx_HAL_Driver/Src/stm32f4xx_hal_dma_ex.c ****     __HAL_DMA_CLEAR_FLAG (hdma, __HAL_DMA_GET_DME_FLAG_INDEX(hdma));
 1131              		.loc 1 215 0 discriminator 2
 1132 06ae 814A     		ldr	r2, .L310+12
 1133 06b0 9342     		cmp	r3, r2
 1134 06b2 53D9     		bls	.L38
 215:Drivers/STM32F4xx_HAL_Driver/Src/stm32f4xx_hal_dma_ex.c ****     __HAL_DMA_CLEAR_FLAG (hdma, __HAL_DMA_GET_DME_FLAG_INDEX(hdma));
 1135              		.loc 1 215 0 discriminator 51
 1136 06b4 A83A     		subs	r2, r2, #168
 1137 06b6 9342     		cmp	r3, r2
 1138 06b8 2ED0     		beq	.L173
 215:Drivers/STM32F4xx_HAL_Driver/Src/stm32f4xx_hal_dma_ex.c ****     __HAL_DMA_CLEAR_FLAG (hdma, __HAL_DMA_GET_DME_FLAG_INDEX(hdma));
 1139              		.loc 1 215 0 discriminator 53
 1140 06ba 02F58062 		add	r2, r2, #1024
 1141 06be 9342     		cmp	r3, r2
 1142 06c0 2CD0     		beq	.L174
 215:Drivers/STM32F4xx_HAL_Driver/Src/stm32f4xx_hal_dma_ex.c ****     __HAL_DMA_CLEAR_FLAG (hdma, __HAL_DMA_GET_DME_FLAG_INDEX(hdma));
 1143              		.loc 1 215 0 discriminator 55
 1144 06c2 A2F56872 		sub	r2, r2, #928
 1145 06c6 9342     		cmp	r3, r2
 1146 06c8 2AD0     		beq	.L175
 215:Drivers/STM32F4xx_HAL_Driver/Src/stm32f4xx_hal_dma_ex.c ****     __HAL_DMA_CLEAR_FLAG (hdma, __HAL_DMA_GET_DME_FLAG_INDEX(hdma));
 1147              		.loc 1 215 0 discriminator 57
 1148 06ca 02F58062 		add	r2, r2, #1024
 1149 06ce 9342     		cmp	r3, r2
 1150 06d0 28D0     		beq	.L176
 215:Drivers/STM32F4xx_HAL_Driver/Src/stm32f4xx_hal_dma_ex.c ****     __HAL_DMA_CLEAR_FLAG (hdma, __HAL_DMA_GET_DME_FLAG_INDEX(hdma));
 1151              		.loc 1 215 0 discriminator 59
 1152 06d2 A2F58962 		sub	r2, r2, #1096
 1153 06d6 9342     		cmp	r3, r2
 1154 06d8 26D0     		beq	.L177
 215:Drivers/STM32F4xx_HAL_Driver/Src/stm32f4xx_hal_dma_ex.c ****     __HAL_DMA_CLEAR_FLAG (hdma, __HAL_DMA_GET_DME_FLAG_INDEX(hdma));
 1155              		.loc 1 215 0 discriminator 61
 1156 06da 02F58062 		add	r2, r2, #1024
 1157 06de 9342     		cmp	r3, r2
 1158 06e0 25D0     		beq	.L178
 215:Drivers/STM32F4xx_HAL_Driver/Src/stm32f4xx_hal_dma_ex.c ****     __HAL_DMA_CLEAR_FLAG (hdma, __HAL_DMA_GET_DME_FLAG_INDEX(hdma));
 1159              		.loc 1 215 0 discriminator 63
 1160 06e2 A2F56872 		sub	r2, r2, #928
 1161 06e6 9342     		cmp	r3, r2
 1162 06e8 24D0     		beq	.L179
 215:Drivers/STM32F4xx_HAL_Driver/Src/stm32f4xx_hal_dma_ex.c ****     __HAL_DMA_CLEAR_FLAG (hdma, __HAL_DMA_GET_DME_FLAG_INDEX(hdma));
 1163              		.loc 1 215 0 discriminator 65
 1164 06ea 02F58062 		add	r2, r2, #1024
 1165 06ee 9342     		cmp	r3, r2
 1166 06f0 23D0     		beq	.L180
 215:Drivers/STM32F4xx_HAL_Driver/Src/stm32f4xx_hal_dma_ex.c ****     __HAL_DMA_CLEAR_FLAG (hdma, __HAL_DMA_GET_DME_FLAG_INDEX(hdma));
ARM GAS  C:\Users\shun2\AppData\Local\Temp\ccpVPaCt.s 			page 30


 1167              		.loc 1 215 0 discriminator 67
 1168 06f2 A2F58962 		sub	r2, r2, #1096
 1169 06f6 9342     		cmp	r3, r2
 1170 06f8 22D0     		beq	.L181
 215:Drivers/STM32F4xx_HAL_Driver/Src/stm32f4xx_hal_dma_ex.c ****     __HAL_DMA_CLEAR_FLAG (hdma, __HAL_DMA_GET_DME_FLAG_INDEX(hdma));
 1171              		.loc 1 215 0 discriminator 69
 1172 06fa 02F58062 		add	r2, r2, #1024
 1173 06fe 9342     		cmp	r3, r2
 1174 0700 21D0     		beq	.L182
 215:Drivers/STM32F4xx_HAL_Driver/Src/stm32f4xx_hal_dma_ex.c ****     __HAL_DMA_CLEAR_FLAG (hdma, __HAL_DMA_GET_DME_FLAG_INDEX(hdma));
 1175              		.loc 1 215 0 discriminator 71
 1176 0702 A2F56872 		sub	r2, r2, #928
 1177 0706 9342     		cmp	r3, r2
 1178 0708 20D0     		beq	.L183
 215:Drivers/STM32F4xx_HAL_Driver/Src/stm32f4xx_hal_dma_ex.c ****     __HAL_DMA_CLEAR_FLAG (hdma, __HAL_DMA_GET_DME_FLAG_INDEX(hdma));
 1179              		.loc 1 215 0 discriminator 73
 1180 070a 02F58062 		add	r2, r2, #1024
 1181 070e 9342     		cmp	r3, r2
 1182 0710 1FD1     		bne	.L184
 215:Drivers/STM32F4xx_HAL_Driver/Src/stm32f4xx_hal_dma_ex.c ****     __HAL_DMA_CLEAR_FLAG (hdma, __HAL_DMA_GET_DME_FLAG_INDEX(hdma));
 1183              		.loc 1 215 0
 1184 0712 4FF40023 		mov	r3, #524288
 1185 0716 1EE0     		b	.L39
 1186              	.L173:
 1187 0718 0823     		movs	r3, #8
 1188 071a 1CE0     		b	.L39
 1189              	.L174:
 1190 071c 0823     		movs	r3, #8
 1191 071e 1AE0     		b	.L39
 1192              	.L175:
 1193 0720 0823     		movs	r3, #8
 1194 0722 18E0     		b	.L39
 1195              	.L176:
 1196 0724 0823     		movs	r3, #8
 1197 0726 16E0     		b	.L39
 1198              	.L177:
 1199 0728 4FF40073 		mov	r3, #512
 1200 072c 13E0     		b	.L39
 1201              	.L178:
 1202 072e 4FF40073 		mov	r3, #512
 1203 0732 10E0     		b	.L39
 1204              	.L179:
 1205 0734 4FF40073 		mov	r3, #512
 1206 0738 0DE0     		b	.L39
 1207              	.L180:
 1208 073a 4FF40073 		mov	r3, #512
 1209 073e 0AE0     		b	.L39
 1210              	.L181:
 1211 0740 4FF40023 		mov	r3, #524288
 1212 0744 07E0     		b	.L39
 1213              	.L182:
 1214 0746 4FF40023 		mov	r3, #524288
 1215 074a 04E0     		b	.L39
 1216              	.L183:
 1217 074c 4FF40023 		mov	r3, #524288
 1218 0750 01E0     		b	.L39
 1219              	.L184:
ARM GAS  C:\Users\shun2\AppData\Local\Temp\ccpVPaCt.s 			page 31


 1220 0752 4FF00073 		mov	r3, #33554432
 1221              	.L39:
 215:Drivers/STM32F4xx_HAL_Driver/Src/stm32f4xx_hal_dma_ex.c ****     __HAL_DMA_CLEAR_FLAG (hdma, __HAL_DMA_GET_DME_FLAG_INDEX(hdma));
 1222              		.loc 1 215 0 discriminator 100
 1223 0756 564A     		ldr	r2, .L310+8
 1224 0758 9360     		str	r3, [r2, #8]
 1225 075a B5E0     		b	.L37
 1226              	.L38:
 215:Drivers/STM32F4xx_HAL_Driver/Src/stm32f4xx_hal_dma_ex.c ****     __HAL_DMA_CLEAR_FLAG (hdma, __HAL_DMA_GET_DME_FLAG_INDEX(hdma));
 1227              		.loc 1 215 0 discriminator 52
 1228 075c 564A     		ldr	r2, .L310+16
 1229 075e 9342     		cmp	r3, r2
 1230 0760 53D9     		bls	.L41
 215:Drivers/STM32F4xx_HAL_Driver/Src/stm32f4xx_hal_dma_ex.c ****     __HAL_DMA_CLEAR_FLAG (hdma, __HAL_DMA_GET_DME_FLAG_INDEX(hdma));
 1231              		.loc 1 215 0 discriminator 102
 1232 0762 483A     		subs	r2, r2, #72
 1233 0764 9342     		cmp	r3, r2
 1234 0766 2ED0     		beq	.L185
 215:Drivers/STM32F4xx_HAL_Driver/Src/stm32f4xx_hal_dma_ex.c ****     __HAL_DMA_CLEAR_FLAG (hdma, __HAL_DMA_GET_DME_FLAG_INDEX(hdma));
 1235              		.loc 1 215 0 discriminator 104
 1236 0768 02F58062 		add	r2, r2, #1024
 1237 076c 9342     		cmp	r3, r2
 1238 076e 2CD0     		beq	.L186
 215:Drivers/STM32F4xx_HAL_Driver/Src/stm32f4xx_hal_dma_ex.c ****     __HAL_DMA_CLEAR_FLAG (hdma, __HAL_DMA_GET_DME_FLAG_INDEX(hdma));
 1239              		.loc 1 215 0 discriminator 106
 1240 0770 A2F56872 		sub	r2, r2, #928
 1241 0774 9342     		cmp	r3, r2
 1242 0776 2AD0     		beq	.L187
 215:Drivers/STM32F4xx_HAL_Driver/Src/stm32f4xx_hal_dma_ex.c ****     __HAL_DMA_CLEAR_FLAG (hdma, __HAL_DMA_GET_DME_FLAG_INDEX(hdma));
 1243              		.loc 1 215 0 discriminator 108
 1244 0778 02F58062 		add	r2, r2, #1024
 1245 077c 9342     		cmp	r3, r2
 1246 077e 28D0     		beq	.L188
 215:Drivers/STM32F4xx_HAL_Driver/Src/stm32f4xx_hal_dma_ex.c ****     __HAL_DMA_CLEAR_FLAG (hdma, __HAL_DMA_GET_DME_FLAG_INDEX(hdma));
 1247              		.loc 1 215 0 discriminator 110
 1248 0780 A2F58962 		sub	r2, r2, #1096
 1249 0784 9342     		cmp	r3, r2
 1250 0786 26D0     		beq	.L189
 215:Drivers/STM32F4xx_HAL_Driver/Src/stm32f4xx_hal_dma_ex.c ****     __HAL_DMA_CLEAR_FLAG (hdma, __HAL_DMA_GET_DME_FLAG_INDEX(hdma));
 1251              		.loc 1 215 0 discriminator 112
 1252 0788 02F58062 		add	r2, r2, #1024
 1253 078c 9342     		cmp	r3, r2
 1254 078e 25D0     		beq	.L190
 215:Drivers/STM32F4xx_HAL_Driver/Src/stm32f4xx_hal_dma_ex.c ****     __HAL_DMA_CLEAR_FLAG (hdma, __HAL_DMA_GET_DME_FLAG_INDEX(hdma));
 1255              		.loc 1 215 0 discriminator 114
 1256 0790 A2F56872 		sub	r2, r2, #928
 1257 0794 9342     		cmp	r3, r2
 1258 0796 24D0     		beq	.L191
 215:Drivers/STM32F4xx_HAL_Driver/Src/stm32f4xx_hal_dma_ex.c ****     __HAL_DMA_CLEAR_FLAG (hdma, __HAL_DMA_GET_DME_FLAG_INDEX(hdma));
 1259              		.loc 1 215 0 discriminator 116
 1260 0798 02F58062 		add	r2, r2, #1024
 1261 079c 9342     		cmp	r3, r2
 1262 079e 23D0     		beq	.L192
 215:Drivers/STM32F4xx_HAL_Driver/Src/stm32f4xx_hal_dma_ex.c ****     __HAL_DMA_CLEAR_FLAG (hdma, __HAL_DMA_GET_DME_FLAG_INDEX(hdma));
 1263              		.loc 1 215 0 discriminator 118
 1264 07a0 A2F58962 		sub	r2, r2, #1096
 1265 07a4 9342     		cmp	r3, r2
ARM GAS  C:\Users\shun2\AppData\Local\Temp\ccpVPaCt.s 			page 32


 1266 07a6 22D0     		beq	.L193
 215:Drivers/STM32F4xx_HAL_Driver/Src/stm32f4xx_hal_dma_ex.c ****     __HAL_DMA_CLEAR_FLAG (hdma, __HAL_DMA_GET_DME_FLAG_INDEX(hdma));
 1267              		.loc 1 215 0 discriminator 120
 1268 07a8 02F58062 		add	r2, r2, #1024
 1269 07ac 9342     		cmp	r3, r2
 1270 07ae 21D0     		beq	.L194
 215:Drivers/STM32F4xx_HAL_Driver/Src/stm32f4xx_hal_dma_ex.c ****     __HAL_DMA_CLEAR_FLAG (hdma, __HAL_DMA_GET_DME_FLAG_INDEX(hdma));
 1271              		.loc 1 215 0 discriminator 122
 1272 07b0 A2F56872 		sub	r2, r2, #928
 1273 07b4 9342     		cmp	r3, r2
 1274 07b6 20D0     		beq	.L195
 215:Drivers/STM32F4xx_HAL_Driver/Src/stm32f4xx_hal_dma_ex.c ****     __HAL_DMA_CLEAR_FLAG (hdma, __HAL_DMA_GET_DME_FLAG_INDEX(hdma));
 1275              		.loc 1 215 0 discriminator 124
 1276 07b8 02F58062 		add	r2, r2, #1024
 1277 07bc 9342     		cmp	r3, r2
 1278 07be 1FD1     		bne	.L196
 215:Drivers/STM32F4xx_HAL_Driver/Src/stm32f4xx_hal_dma_ex.c ****     __HAL_DMA_CLEAR_FLAG (hdma, __HAL_DMA_GET_DME_FLAG_INDEX(hdma));
 1279              		.loc 1 215 0
 1280 07c0 4FF40023 		mov	r3, #524288
 1281 07c4 1EE0     		b	.L42
 1282              	.L185:
 1283 07c6 0823     		movs	r3, #8
 1284 07c8 1CE0     		b	.L42
 1285              	.L186:
 1286 07ca 0823     		movs	r3, #8
 1287 07cc 1AE0     		b	.L42
 1288              	.L187:
 1289 07ce 0823     		movs	r3, #8
 1290 07d0 18E0     		b	.L42
 1291              	.L188:
 1292 07d2 0823     		movs	r3, #8
 1293 07d4 16E0     		b	.L42
 1294              	.L189:
 1295 07d6 4FF40073 		mov	r3, #512
 1296 07da 13E0     		b	.L42
 1297              	.L190:
 1298 07dc 4FF40073 		mov	r3, #512
 1299 07e0 10E0     		b	.L42
 1300              	.L191:
 1301 07e2 4FF40073 		mov	r3, #512
 1302 07e6 0DE0     		b	.L42
 1303              	.L192:
 1304 07e8 4FF40073 		mov	r3, #512
 1305 07ec 0AE0     		b	.L42
 1306              	.L193:
 1307 07ee 4FF40023 		mov	r3, #524288
 1308 07f2 07E0     		b	.L42
 1309              	.L194:
 1310 07f4 4FF40023 		mov	r3, #524288
 1311 07f8 04E0     		b	.L42
 1312              	.L195:
 1313 07fa 4FF40023 		mov	r3, #524288
 1314 07fe 01E0     		b	.L42
 1315              	.L196:
 1316 0800 4FF00073 		mov	r3, #33554432
 1317              	.L42:
 215:Drivers/STM32F4xx_HAL_Driver/Src/stm32f4xx_hal_dma_ex.c ****     __HAL_DMA_CLEAR_FLAG (hdma, __HAL_DMA_GET_DME_FLAG_INDEX(hdma));
ARM GAS  C:\Users\shun2\AppData\Local\Temp\ccpVPaCt.s 			page 33


 1318              		.loc 1 215 0 discriminator 151
 1319 0804 284A     		ldr	r2, .L310
 1320 0806 D360     		str	r3, [r2, #12]
 1321 0808 5EE0     		b	.L37
 1322              	.L41:
 215:Drivers/STM32F4xx_HAL_Driver/Src/stm32f4xx_hal_dma_ex.c ****     __HAL_DMA_CLEAR_FLAG (hdma, __HAL_DMA_GET_DME_FLAG_INDEX(hdma));
 1323              		.loc 1 215 0 discriminator 103
 1324 080a 2C4A     		ldr	r2, .L310+20
 1325 080c 9342     		cmp	r3, r2
 1326 080e 2ED0     		beq	.L197
 215:Drivers/STM32F4xx_HAL_Driver/Src/stm32f4xx_hal_dma_ex.c ****     __HAL_DMA_CLEAR_FLAG (hdma, __HAL_DMA_GET_DME_FLAG_INDEX(hdma));
 1327              		.loc 1 215 0 discriminator 153
 1328 0810 02F58062 		add	r2, r2, #1024
 1329 0814 9342     		cmp	r3, r2
 1330 0816 2CD0     		beq	.L198
 215:Drivers/STM32F4xx_HAL_Driver/Src/stm32f4xx_hal_dma_ex.c ****     __HAL_DMA_CLEAR_FLAG (hdma, __HAL_DMA_GET_DME_FLAG_INDEX(hdma));
 1331              		.loc 1 215 0 discriminator 155
 1332 0818 A2F56872 		sub	r2, r2, #928
 1333 081c 9342     		cmp	r3, r2
 1334 081e 2AD0     		beq	.L199
 215:Drivers/STM32F4xx_HAL_Driver/Src/stm32f4xx_hal_dma_ex.c ****     __HAL_DMA_CLEAR_FLAG (hdma, __HAL_DMA_GET_DME_FLAG_INDEX(hdma));
 1335              		.loc 1 215 0 discriminator 157
 1336 0820 02F58062 		add	r2, r2, #1024
 1337 0824 9342     		cmp	r3, r2
 1338 0826 28D0     		beq	.L200
 215:Drivers/STM32F4xx_HAL_Driver/Src/stm32f4xx_hal_dma_ex.c ****     __HAL_DMA_CLEAR_FLAG (hdma, __HAL_DMA_GET_DME_FLAG_INDEX(hdma));
 1339              		.loc 1 215 0 discriminator 159
 1340 0828 A2F58962 		sub	r2, r2, #1096
 1341 082c 9342     		cmp	r3, r2
 1342 082e 26D0     		beq	.L201
 215:Drivers/STM32F4xx_HAL_Driver/Src/stm32f4xx_hal_dma_ex.c ****     __HAL_DMA_CLEAR_FLAG (hdma, __HAL_DMA_GET_DME_FLAG_INDEX(hdma));
 1343              		.loc 1 215 0 discriminator 161
 1344 0830 02F58062 		add	r2, r2, #1024
 1345 0834 9342     		cmp	r3, r2
 1346 0836 25D0     		beq	.L202
 215:Drivers/STM32F4xx_HAL_Driver/Src/stm32f4xx_hal_dma_ex.c ****     __HAL_DMA_CLEAR_FLAG (hdma, __HAL_DMA_GET_DME_FLAG_INDEX(hdma));
 1347              		.loc 1 215 0 discriminator 163
 1348 0838 A2F56872 		sub	r2, r2, #928
 1349 083c 9342     		cmp	r3, r2
 1350 083e 24D0     		beq	.L203
 215:Drivers/STM32F4xx_HAL_Driver/Src/stm32f4xx_hal_dma_ex.c ****     __HAL_DMA_CLEAR_FLAG (hdma, __HAL_DMA_GET_DME_FLAG_INDEX(hdma));
 1351              		.loc 1 215 0 discriminator 165
 1352 0840 02F58062 		add	r2, r2, #1024
 1353 0844 9342     		cmp	r3, r2
 1354 0846 23D0     		beq	.L204
 215:Drivers/STM32F4xx_HAL_Driver/Src/stm32f4xx_hal_dma_ex.c ****     __HAL_DMA_CLEAR_FLAG (hdma, __HAL_DMA_GET_DME_FLAG_INDEX(hdma));
 1355              		.loc 1 215 0 discriminator 167
 1356 0848 A2F58962 		sub	r2, r2, #1096
 1357 084c 9342     		cmp	r3, r2
 1358 084e 22D0     		beq	.L205
 215:Drivers/STM32F4xx_HAL_Driver/Src/stm32f4xx_hal_dma_ex.c ****     __HAL_DMA_CLEAR_FLAG (hdma, __HAL_DMA_GET_DME_FLAG_INDEX(hdma));
 1359              		.loc 1 215 0 discriminator 169
 1360 0850 02F58062 		add	r2, r2, #1024
 1361 0854 9342     		cmp	r3, r2
 1362 0856 21D0     		beq	.L206
 215:Drivers/STM32F4xx_HAL_Driver/Src/stm32f4xx_hal_dma_ex.c ****     __HAL_DMA_CLEAR_FLAG (hdma, __HAL_DMA_GET_DME_FLAG_INDEX(hdma));
 1363              		.loc 1 215 0 discriminator 171
ARM GAS  C:\Users\shun2\AppData\Local\Temp\ccpVPaCt.s 			page 34


 1364 0858 A2F56872 		sub	r2, r2, #928
 1365 085c 9342     		cmp	r3, r2
 1366 085e 20D0     		beq	.L207
 215:Drivers/STM32F4xx_HAL_Driver/Src/stm32f4xx_hal_dma_ex.c ****     __HAL_DMA_CLEAR_FLAG (hdma, __HAL_DMA_GET_DME_FLAG_INDEX(hdma));
 1367              		.loc 1 215 0 discriminator 173
 1368 0860 02F58062 		add	r2, r2, #1024
 1369 0864 9342     		cmp	r3, r2
 1370 0866 2BD1     		bne	.L208
 215:Drivers/STM32F4xx_HAL_Driver/Src/stm32f4xx_hal_dma_ex.c ****     __HAL_DMA_CLEAR_FLAG (hdma, __HAL_DMA_GET_DME_FLAG_INDEX(hdma));
 1371              		.loc 1 215 0
 1372 0868 4FF40023 		mov	r3, #524288
 1373 086c 2AE0     		b	.L43
 1374              	.L197:
 1375 086e 0823     		movs	r3, #8
 1376 0870 28E0     		b	.L43
 1377              	.L198:
 1378 0872 0823     		movs	r3, #8
 1379 0874 26E0     		b	.L43
 1380              	.L199:
 1381 0876 0823     		movs	r3, #8
 1382 0878 24E0     		b	.L43
 1383              	.L200:
 1384 087a 0823     		movs	r3, #8
 1385 087c 22E0     		b	.L43
 1386              	.L201:
 1387 087e 4FF40073 		mov	r3, #512
 1388 0882 1FE0     		b	.L43
 1389              	.L202:
 1390 0884 4FF40073 		mov	r3, #512
 1391 0888 1CE0     		b	.L43
 1392              	.L203:
 1393 088a 4FF40073 		mov	r3, #512
 1394 088e 19E0     		b	.L43
 1395              	.L204:
 1396 0890 4FF40073 		mov	r3, #512
 1397 0894 16E0     		b	.L43
 1398              	.L205:
 1399 0896 4FF40023 		mov	r3, #524288
 1400 089a 13E0     		b	.L43
 1401              	.L206:
 1402 089c 4FF40023 		mov	r3, #524288
 1403 08a0 10E0     		b	.L43
 1404              	.L207:
 1405 08a2 4FF40023 		mov	r3, #524288
 1406 08a6 0DE0     		b	.L43
 1407              	.L311:
 1408              		.align	2
 1409              	.L310:
 1410 08a8 00600240 		.word	1073897472
 1411 08ac 58640240 		.word	1073898584
 1412 08b0 00640240 		.word	1073898496
 1413 08b4 B8600240 		.word	1073897656
 1414 08b8 58600240 		.word	1073897560
 1415 08bc 10600240 		.word	1073897488
 1416              	.L208:
 1417 08c0 4FF00073 		mov	r3, #33554432
 1418              	.L43:
ARM GAS  C:\Users\shun2\AppData\Local\Temp\ccpVPaCt.s 			page 35


 215:Drivers/STM32F4xx_HAL_Driver/Src/stm32f4xx_hal_dma_ex.c ****     __HAL_DMA_CLEAR_FLAG (hdma, __HAL_DMA_GET_DME_FLAG_INDEX(hdma));
 1419              		.loc 1 215 0 discriminator 200
 1420 08c4 AB4A     		ldr	r2, .L312
 1421 08c6 9360     		str	r3, [r2, #8]
 1422              	.L37:
 216:Drivers/STM32F4xx_HAL_Driver/Src/stm32f4xx_hal_dma_ex.c ****     __HAL_DMA_CLEAR_FLAG (hdma, __HAL_DMA_GET_FE_FLAG_INDEX(hdma));
 1423              		.loc 1 216 0 is_stmt 1
 1424 08c8 2368     		ldr	r3, [r4]
 1425 08ca AB4A     		ldr	r2, .L312+4
 1426 08cc 9342     		cmp	r3, r2
 1427 08ce 54D9     		bls	.L44
 216:Drivers/STM32F4xx_HAL_Driver/Src/stm32f4xx_hal_dma_ex.c ****     __HAL_DMA_CLEAR_FLAG (hdma, __HAL_DMA_GET_FE_FLAG_INDEX(hdma));
 1428              		.loc 1 216 0 is_stmt 0 discriminator 1
 1429 08d0 A2F58962 		sub	r2, r2, #1096
 1430 08d4 9342     		cmp	r3, r2
 1431 08d6 2ED0     		beq	.L209
 216:Drivers/STM32F4xx_HAL_Driver/Src/stm32f4xx_hal_dma_ex.c ****     __HAL_DMA_CLEAR_FLAG (hdma, __HAL_DMA_GET_FE_FLAG_INDEX(hdma));
 1432              		.loc 1 216 0 discriminator 3
 1433 08d8 02F58062 		add	r2, r2, #1024
 1434 08dc 9342     		cmp	r3, r2
 1435 08de 2CD0     		beq	.L210
 216:Drivers/STM32F4xx_HAL_Driver/Src/stm32f4xx_hal_dma_ex.c ****     __HAL_DMA_CLEAR_FLAG (hdma, __HAL_DMA_GET_FE_FLAG_INDEX(hdma));
 1436              		.loc 1 216 0 discriminator 5
 1437 08e0 A2F56872 		sub	r2, r2, #928
 1438 08e4 9342     		cmp	r3, r2
 1439 08e6 2AD0     		beq	.L211
 216:Drivers/STM32F4xx_HAL_Driver/Src/stm32f4xx_hal_dma_ex.c ****     __HAL_DMA_CLEAR_FLAG (hdma, __HAL_DMA_GET_FE_FLAG_INDEX(hdma));
 1440              		.loc 1 216 0 discriminator 7
 1441 08e8 02F58062 		add	r2, r2, #1024
 1442 08ec 9342     		cmp	r3, r2
 1443 08ee 28D0     		beq	.L212
 216:Drivers/STM32F4xx_HAL_Driver/Src/stm32f4xx_hal_dma_ex.c ****     __HAL_DMA_CLEAR_FLAG (hdma, __HAL_DMA_GET_FE_FLAG_INDEX(hdma));
 1444              		.loc 1 216 0 discriminator 9
 1445 08f0 A2F58962 		sub	r2, r2, #1096
 1446 08f4 9342     		cmp	r3, r2
 1447 08f6 26D0     		beq	.L213
 216:Drivers/STM32F4xx_HAL_Driver/Src/stm32f4xx_hal_dma_ex.c ****     __HAL_DMA_CLEAR_FLAG (hdma, __HAL_DMA_GET_FE_FLAG_INDEX(hdma));
 1448              		.loc 1 216 0 discriminator 11
 1449 08f8 02F58062 		add	r2, r2, #1024
 1450 08fc 9342     		cmp	r3, r2
 1451 08fe 25D0     		beq	.L214
 216:Drivers/STM32F4xx_HAL_Driver/Src/stm32f4xx_hal_dma_ex.c ****     __HAL_DMA_CLEAR_FLAG (hdma, __HAL_DMA_GET_FE_FLAG_INDEX(hdma));
 1452              		.loc 1 216 0 discriminator 13
 1453 0900 A2F56872 		sub	r2, r2, #928
 1454 0904 9342     		cmp	r3, r2
 1455 0906 24D0     		beq	.L215
 216:Drivers/STM32F4xx_HAL_Driver/Src/stm32f4xx_hal_dma_ex.c ****     __HAL_DMA_CLEAR_FLAG (hdma, __HAL_DMA_GET_FE_FLAG_INDEX(hdma));
 1456              		.loc 1 216 0 discriminator 15
 1457 0908 02F58062 		add	r2, r2, #1024
 1458 090c 9342     		cmp	r3, r2
 1459 090e 23D0     		beq	.L216
 216:Drivers/STM32F4xx_HAL_Driver/Src/stm32f4xx_hal_dma_ex.c ****     __HAL_DMA_CLEAR_FLAG (hdma, __HAL_DMA_GET_FE_FLAG_INDEX(hdma));
 1460              		.loc 1 216 0 discriminator 17
 1461 0910 A2F58962 		sub	r2, r2, #1096
 1462 0914 9342     		cmp	r3, r2
 1463 0916 22D0     		beq	.L217
 216:Drivers/STM32F4xx_HAL_Driver/Src/stm32f4xx_hal_dma_ex.c ****     __HAL_DMA_CLEAR_FLAG (hdma, __HAL_DMA_GET_FE_FLAG_INDEX(hdma));
ARM GAS  C:\Users\shun2\AppData\Local\Temp\ccpVPaCt.s 			page 36


 1464              		.loc 1 216 0 discriminator 19
 1465 0918 02F58062 		add	r2, r2, #1024
 1466 091c 9342     		cmp	r3, r2
 1467 091e 21D0     		beq	.L218
 216:Drivers/STM32F4xx_HAL_Driver/Src/stm32f4xx_hal_dma_ex.c ****     __HAL_DMA_CLEAR_FLAG (hdma, __HAL_DMA_GET_FE_FLAG_INDEX(hdma));
 1468              		.loc 1 216 0 discriminator 21
 1469 0920 A2F56872 		sub	r2, r2, #928
 1470 0924 9342     		cmp	r3, r2
 1471 0926 20D0     		beq	.L219
 216:Drivers/STM32F4xx_HAL_Driver/Src/stm32f4xx_hal_dma_ex.c ****     __HAL_DMA_CLEAR_FLAG (hdma, __HAL_DMA_GET_FE_FLAG_INDEX(hdma));
 1472              		.loc 1 216 0 discriminator 23
 1473 0928 02F58062 		add	r2, r2, #1024
 1474 092c 9342     		cmp	r3, r2
 1475 092e 1FD1     		bne	.L220
 216:Drivers/STM32F4xx_HAL_Driver/Src/stm32f4xx_hal_dma_ex.c ****     __HAL_DMA_CLEAR_FLAG (hdma, __HAL_DMA_GET_FE_FLAG_INDEX(hdma));
 1476              		.loc 1 216 0
 1477 0930 4FF48023 		mov	r3, #262144
 1478 0934 1EE0     		b	.L45
 1479              	.L209:
 1480 0936 0423     		movs	r3, #4
 1481 0938 1CE0     		b	.L45
 1482              	.L210:
 1483 093a 0423     		movs	r3, #4
 1484 093c 1AE0     		b	.L45
 1485              	.L211:
 1486 093e 0423     		movs	r3, #4
 1487 0940 18E0     		b	.L45
 1488              	.L212:
 1489 0942 0423     		movs	r3, #4
 1490 0944 16E0     		b	.L45
 1491              	.L213:
 1492 0946 4FF48073 		mov	r3, #256
 1493 094a 13E0     		b	.L45
 1494              	.L214:
 1495 094c 4FF48073 		mov	r3, #256
 1496 0950 10E0     		b	.L45
 1497              	.L215:
 1498 0952 4FF48073 		mov	r3, #256
 1499 0956 0DE0     		b	.L45
 1500              	.L216:
 1501 0958 4FF48073 		mov	r3, #256
 1502 095c 0AE0     		b	.L45
 1503              	.L217:
 1504 095e 4FF48023 		mov	r3, #262144
 1505 0962 07E0     		b	.L45
 1506              	.L218:
 1507 0964 4FF48023 		mov	r3, #262144
 1508 0968 04E0     		b	.L45
 1509              	.L219:
 1510 096a 4FF48023 		mov	r3, #262144
 1511 096e 01E0     		b	.L45
 1512              	.L220:
 1513 0970 4FF08073 		mov	r3, #16777216
 1514              	.L45:
 216:Drivers/STM32F4xx_HAL_Driver/Src/stm32f4xx_hal_dma_ex.c ****     __HAL_DMA_CLEAR_FLAG (hdma, __HAL_DMA_GET_FE_FLAG_INDEX(hdma));
 1515              		.loc 1 216 0 discriminator 50
 1516 0974 814A     		ldr	r2, .L312+8
ARM GAS  C:\Users\shun2\AppData\Local\Temp\ccpVPaCt.s 			page 37


 1517 0976 D360     		str	r3, [r2, #12]
 1518 0978 0CE1     		b	.L46
 1519              	.L44:
 216:Drivers/STM32F4xx_HAL_Driver/Src/stm32f4xx_hal_dma_ex.c ****     __HAL_DMA_CLEAR_FLAG (hdma, __HAL_DMA_GET_FE_FLAG_INDEX(hdma));
 1520              		.loc 1 216 0 discriminator 2
 1521 097a 814A     		ldr	r2, .L312+12
 1522 097c 9342     		cmp	r3, r2
 1523 097e 53D9     		bls	.L47
 216:Drivers/STM32F4xx_HAL_Driver/Src/stm32f4xx_hal_dma_ex.c ****     __HAL_DMA_CLEAR_FLAG (hdma, __HAL_DMA_GET_FE_FLAG_INDEX(hdma));
 1524              		.loc 1 216 0 discriminator 51
 1525 0980 A83A     		subs	r2, r2, #168
 1526 0982 9342     		cmp	r3, r2
 1527 0984 2ED0     		beq	.L221
 216:Drivers/STM32F4xx_HAL_Driver/Src/stm32f4xx_hal_dma_ex.c ****     __HAL_DMA_CLEAR_FLAG (hdma, __HAL_DMA_GET_FE_FLAG_INDEX(hdma));
 1528              		.loc 1 216 0 discriminator 53
 1529 0986 02F58062 		add	r2, r2, #1024
 1530 098a 9342     		cmp	r3, r2
 1531 098c 2CD0     		beq	.L222
 216:Drivers/STM32F4xx_HAL_Driver/Src/stm32f4xx_hal_dma_ex.c ****     __HAL_DMA_CLEAR_FLAG (hdma, __HAL_DMA_GET_FE_FLAG_INDEX(hdma));
 1532              		.loc 1 216 0 discriminator 55
 1533 098e A2F56872 		sub	r2, r2, #928
 1534 0992 9342     		cmp	r3, r2
 1535 0994 2AD0     		beq	.L223
 216:Drivers/STM32F4xx_HAL_Driver/Src/stm32f4xx_hal_dma_ex.c ****     __HAL_DMA_CLEAR_FLAG (hdma, __HAL_DMA_GET_FE_FLAG_INDEX(hdma));
 1536              		.loc 1 216 0 discriminator 57
 1537 0996 02F58062 		add	r2, r2, #1024
 1538 099a 9342     		cmp	r3, r2
 1539 099c 28D0     		beq	.L224
 216:Drivers/STM32F4xx_HAL_Driver/Src/stm32f4xx_hal_dma_ex.c ****     __HAL_DMA_CLEAR_FLAG (hdma, __HAL_DMA_GET_FE_FLAG_INDEX(hdma));
 1540              		.loc 1 216 0 discriminator 59
 1541 099e A2F58962 		sub	r2, r2, #1096
 1542 09a2 9342     		cmp	r3, r2
 1543 09a4 26D0     		beq	.L225
 216:Drivers/STM32F4xx_HAL_Driver/Src/stm32f4xx_hal_dma_ex.c ****     __HAL_DMA_CLEAR_FLAG (hdma, __HAL_DMA_GET_FE_FLAG_INDEX(hdma));
 1544              		.loc 1 216 0 discriminator 61
 1545 09a6 02F58062 		add	r2, r2, #1024
 1546 09aa 9342     		cmp	r3, r2
 1547 09ac 25D0     		beq	.L226
 216:Drivers/STM32F4xx_HAL_Driver/Src/stm32f4xx_hal_dma_ex.c ****     __HAL_DMA_CLEAR_FLAG (hdma, __HAL_DMA_GET_FE_FLAG_INDEX(hdma));
 1548              		.loc 1 216 0 discriminator 63
 1549 09ae A2F56872 		sub	r2, r2, #928
 1550 09b2 9342     		cmp	r3, r2
 1551 09b4 24D0     		beq	.L227
 216:Drivers/STM32F4xx_HAL_Driver/Src/stm32f4xx_hal_dma_ex.c ****     __HAL_DMA_CLEAR_FLAG (hdma, __HAL_DMA_GET_FE_FLAG_INDEX(hdma));
 1552              		.loc 1 216 0 discriminator 65
 1553 09b6 02F58062 		add	r2, r2, #1024
 1554 09ba 9342     		cmp	r3, r2
 1555 09bc 23D0     		beq	.L228
 216:Drivers/STM32F4xx_HAL_Driver/Src/stm32f4xx_hal_dma_ex.c ****     __HAL_DMA_CLEAR_FLAG (hdma, __HAL_DMA_GET_FE_FLAG_INDEX(hdma));
 1556              		.loc 1 216 0 discriminator 67
 1557 09be A2F58962 		sub	r2, r2, #1096
 1558 09c2 9342     		cmp	r3, r2
 1559 09c4 22D0     		beq	.L229
 216:Drivers/STM32F4xx_HAL_Driver/Src/stm32f4xx_hal_dma_ex.c ****     __HAL_DMA_CLEAR_FLAG (hdma, __HAL_DMA_GET_FE_FLAG_INDEX(hdma));
 1560              		.loc 1 216 0 discriminator 69
 1561 09c6 02F58062 		add	r2, r2, #1024
 1562 09ca 9342     		cmp	r3, r2
ARM GAS  C:\Users\shun2\AppData\Local\Temp\ccpVPaCt.s 			page 38


 1563 09cc 21D0     		beq	.L230
 216:Drivers/STM32F4xx_HAL_Driver/Src/stm32f4xx_hal_dma_ex.c ****     __HAL_DMA_CLEAR_FLAG (hdma, __HAL_DMA_GET_FE_FLAG_INDEX(hdma));
 1564              		.loc 1 216 0 discriminator 71
 1565 09ce A2F56872 		sub	r2, r2, #928
 1566 09d2 9342     		cmp	r3, r2
 1567 09d4 20D0     		beq	.L231
 216:Drivers/STM32F4xx_HAL_Driver/Src/stm32f4xx_hal_dma_ex.c ****     __HAL_DMA_CLEAR_FLAG (hdma, __HAL_DMA_GET_FE_FLAG_INDEX(hdma));
 1568              		.loc 1 216 0 discriminator 73
 1569 09d6 02F58062 		add	r2, r2, #1024
 1570 09da 9342     		cmp	r3, r2
 1571 09dc 1FD1     		bne	.L232
 216:Drivers/STM32F4xx_HAL_Driver/Src/stm32f4xx_hal_dma_ex.c ****     __HAL_DMA_CLEAR_FLAG (hdma, __HAL_DMA_GET_FE_FLAG_INDEX(hdma));
 1572              		.loc 1 216 0
 1573 09de 4FF48023 		mov	r3, #262144
 1574 09e2 1EE0     		b	.L48
 1575              	.L221:
 1576 09e4 0423     		movs	r3, #4
 1577 09e6 1CE0     		b	.L48
 1578              	.L222:
 1579 09e8 0423     		movs	r3, #4
 1580 09ea 1AE0     		b	.L48
 1581              	.L223:
 1582 09ec 0423     		movs	r3, #4
 1583 09ee 18E0     		b	.L48
 1584              	.L224:
 1585 09f0 0423     		movs	r3, #4
 1586 09f2 16E0     		b	.L48
 1587              	.L225:
 1588 09f4 4FF48073 		mov	r3, #256
 1589 09f8 13E0     		b	.L48
 1590              	.L226:
 1591 09fa 4FF48073 		mov	r3, #256
 1592 09fe 10E0     		b	.L48
 1593              	.L227:
 1594 0a00 4FF48073 		mov	r3, #256
 1595 0a04 0DE0     		b	.L48
 1596              	.L228:
 1597 0a06 4FF48073 		mov	r3, #256
 1598 0a0a 0AE0     		b	.L48
 1599              	.L229:
 1600 0a0c 4FF48023 		mov	r3, #262144
 1601 0a10 07E0     		b	.L48
 1602              	.L230:
 1603 0a12 4FF48023 		mov	r3, #262144
 1604 0a16 04E0     		b	.L48
 1605              	.L231:
 1606 0a18 4FF48023 		mov	r3, #262144
 1607 0a1c 01E0     		b	.L48
 1608              	.L232:
 1609 0a1e 4FF08073 		mov	r3, #16777216
 1610              	.L48:
 216:Drivers/STM32F4xx_HAL_Driver/Src/stm32f4xx_hal_dma_ex.c ****     __HAL_DMA_CLEAR_FLAG (hdma, __HAL_DMA_GET_FE_FLAG_INDEX(hdma));
 1611              		.loc 1 216 0 discriminator 100
 1612 0a22 564A     		ldr	r2, .L312+8
 1613 0a24 9360     		str	r3, [r2, #8]
 1614 0a26 B5E0     		b	.L46
 1615              	.L47:
ARM GAS  C:\Users\shun2\AppData\Local\Temp\ccpVPaCt.s 			page 39


 216:Drivers/STM32F4xx_HAL_Driver/Src/stm32f4xx_hal_dma_ex.c ****     __HAL_DMA_CLEAR_FLAG (hdma, __HAL_DMA_GET_FE_FLAG_INDEX(hdma));
 1616              		.loc 1 216 0 discriminator 52
 1617 0a28 564A     		ldr	r2, .L312+16
 1618 0a2a 9342     		cmp	r3, r2
 1619 0a2c 53D9     		bls	.L50
 216:Drivers/STM32F4xx_HAL_Driver/Src/stm32f4xx_hal_dma_ex.c ****     __HAL_DMA_CLEAR_FLAG (hdma, __HAL_DMA_GET_FE_FLAG_INDEX(hdma));
 1620              		.loc 1 216 0 discriminator 102
 1621 0a2e 483A     		subs	r2, r2, #72
 1622 0a30 9342     		cmp	r3, r2
 1623 0a32 2ED0     		beq	.L233
 216:Drivers/STM32F4xx_HAL_Driver/Src/stm32f4xx_hal_dma_ex.c ****     __HAL_DMA_CLEAR_FLAG (hdma, __HAL_DMA_GET_FE_FLAG_INDEX(hdma));
 1624              		.loc 1 216 0 discriminator 104
 1625 0a34 02F58062 		add	r2, r2, #1024
 1626 0a38 9342     		cmp	r3, r2
 1627 0a3a 2CD0     		beq	.L234
 216:Drivers/STM32F4xx_HAL_Driver/Src/stm32f4xx_hal_dma_ex.c ****     __HAL_DMA_CLEAR_FLAG (hdma, __HAL_DMA_GET_FE_FLAG_INDEX(hdma));
 1628              		.loc 1 216 0 discriminator 106
 1629 0a3c A2F56872 		sub	r2, r2, #928
 1630 0a40 9342     		cmp	r3, r2
 1631 0a42 2AD0     		beq	.L235
 216:Drivers/STM32F4xx_HAL_Driver/Src/stm32f4xx_hal_dma_ex.c ****     __HAL_DMA_CLEAR_FLAG (hdma, __HAL_DMA_GET_FE_FLAG_INDEX(hdma));
 1632              		.loc 1 216 0 discriminator 108
 1633 0a44 02F58062 		add	r2, r2, #1024
 1634 0a48 9342     		cmp	r3, r2
 1635 0a4a 28D0     		beq	.L236
 216:Drivers/STM32F4xx_HAL_Driver/Src/stm32f4xx_hal_dma_ex.c ****     __HAL_DMA_CLEAR_FLAG (hdma, __HAL_DMA_GET_FE_FLAG_INDEX(hdma));
 1636              		.loc 1 216 0 discriminator 110
 1637 0a4c A2F58962 		sub	r2, r2, #1096
 1638 0a50 9342     		cmp	r3, r2
 1639 0a52 26D0     		beq	.L237
 216:Drivers/STM32F4xx_HAL_Driver/Src/stm32f4xx_hal_dma_ex.c ****     __HAL_DMA_CLEAR_FLAG (hdma, __HAL_DMA_GET_FE_FLAG_INDEX(hdma));
 1640              		.loc 1 216 0 discriminator 112
 1641 0a54 02F58062 		add	r2, r2, #1024
 1642 0a58 9342     		cmp	r3, r2
 1643 0a5a 25D0     		beq	.L238
 216:Drivers/STM32F4xx_HAL_Driver/Src/stm32f4xx_hal_dma_ex.c ****     __HAL_DMA_CLEAR_FLAG (hdma, __HAL_DMA_GET_FE_FLAG_INDEX(hdma));
 1644              		.loc 1 216 0 discriminator 114
 1645 0a5c A2F56872 		sub	r2, r2, #928
 1646 0a60 9342     		cmp	r3, r2
 1647 0a62 24D0     		beq	.L239
 216:Drivers/STM32F4xx_HAL_Driver/Src/stm32f4xx_hal_dma_ex.c ****     __HAL_DMA_CLEAR_FLAG (hdma, __HAL_DMA_GET_FE_FLAG_INDEX(hdma));
 1648              		.loc 1 216 0 discriminator 116
 1649 0a64 02F58062 		add	r2, r2, #1024
 1650 0a68 9342     		cmp	r3, r2
 1651 0a6a 23D0     		beq	.L240
 216:Drivers/STM32F4xx_HAL_Driver/Src/stm32f4xx_hal_dma_ex.c ****     __HAL_DMA_CLEAR_FLAG (hdma, __HAL_DMA_GET_FE_FLAG_INDEX(hdma));
 1652              		.loc 1 216 0 discriminator 118
 1653 0a6c A2F58962 		sub	r2, r2, #1096
 1654 0a70 9342     		cmp	r3, r2
 1655 0a72 22D0     		beq	.L241
 216:Drivers/STM32F4xx_HAL_Driver/Src/stm32f4xx_hal_dma_ex.c ****     __HAL_DMA_CLEAR_FLAG (hdma, __HAL_DMA_GET_FE_FLAG_INDEX(hdma));
 1656              		.loc 1 216 0 discriminator 120
 1657 0a74 02F58062 		add	r2, r2, #1024
 1658 0a78 9342     		cmp	r3, r2
 1659 0a7a 21D0     		beq	.L242
 216:Drivers/STM32F4xx_HAL_Driver/Src/stm32f4xx_hal_dma_ex.c ****     __HAL_DMA_CLEAR_FLAG (hdma, __HAL_DMA_GET_FE_FLAG_INDEX(hdma));
 1660              		.loc 1 216 0 discriminator 122
ARM GAS  C:\Users\shun2\AppData\Local\Temp\ccpVPaCt.s 			page 40


 1661 0a7c A2F56872 		sub	r2, r2, #928
 1662 0a80 9342     		cmp	r3, r2
 1663 0a82 20D0     		beq	.L243
 216:Drivers/STM32F4xx_HAL_Driver/Src/stm32f4xx_hal_dma_ex.c ****     __HAL_DMA_CLEAR_FLAG (hdma, __HAL_DMA_GET_FE_FLAG_INDEX(hdma));
 1664              		.loc 1 216 0 discriminator 124
 1665 0a84 02F58062 		add	r2, r2, #1024
 1666 0a88 9342     		cmp	r3, r2
 1667 0a8a 1FD1     		bne	.L244
 216:Drivers/STM32F4xx_HAL_Driver/Src/stm32f4xx_hal_dma_ex.c ****     __HAL_DMA_CLEAR_FLAG (hdma, __HAL_DMA_GET_FE_FLAG_INDEX(hdma));
 1668              		.loc 1 216 0
 1669 0a8c 4FF48023 		mov	r3, #262144
 1670 0a90 1EE0     		b	.L51
 1671              	.L233:
 1672 0a92 0423     		movs	r3, #4
 1673 0a94 1CE0     		b	.L51
 1674              	.L234:
 1675 0a96 0423     		movs	r3, #4
 1676 0a98 1AE0     		b	.L51
 1677              	.L235:
 1678 0a9a 0423     		movs	r3, #4
 1679 0a9c 18E0     		b	.L51
 1680              	.L236:
 1681 0a9e 0423     		movs	r3, #4
 1682 0aa0 16E0     		b	.L51
 1683              	.L237:
 1684 0aa2 4FF48073 		mov	r3, #256
 1685 0aa6 13E0     		b	.L51
 1686              	.L238:
 1687 0aa8 4FF48073 		mov	r3, #256
 1688 0aac 10E0     		b	.L51
 1689              	.L239:
 1690 0aae 4FF48073 		mov	r3, #256
 1691 0ab2 0DE0     		b	.L51
 1692              	.L240:
 1693 0ab4 4FF48073 		mov	r3, #256
 1694 0ab8 0AE0     		b	.L51
 1695              	.L241:
 1696 0aba 4FF48023 		mov	r3, #262144
 1697 0abe 07E0     		b	.L51
 1698              	.L242:
 1699 0ac0 4FF48023 		mov	r3, #262144
 1700 0ac4 04E0     		b	.L51
 1701              	.L243:
 1702 0ac6 4FF48023 		mov	r3, #262144
 1703 0aca 01E0     		b	.L51
 1704              	.L244:
 1705 0acc 4FF08073 		mov	r3, #16777216
 1706              	.L51:
 216:Drivers/STM32F4xx_HAL_Driver/Src/stm32f4xx_hal_dma_ex.c ****     __HAL_DMA_CLEAR_FLAG (hdma, __HAL_DMA_GET_FE_FLAG_INDEX(hdma));
 1707              		.loc 1 216 0 discriminator 151
 1708 0ad0 284A     		ldr	r2, .L312
 1709 0ad2 D360     		str	r3, [r2, #12]
 1710 0ad4 5EE0     		b	.L46
 1711              	.L50:
 216:Drivers/STM32F4xx_HAL_Driver/Src/stm32f4xx_hal_dma_ex.c ****     __HAL_DMA_CLEAR_FLAG (hdma, __HAL_DMA_GET_FE_FLAG_INDEX(hdma));
 1712              		.loc 1 216 0 discriminator 103
 1713 0ad6 2C4A     		ldr	r2, .L312+20
ARM GAS  C:\Users\shun2\AppData\Local\Temp\ccpVPaCt.s 			page 41


 1714 0ad8 9342     		cmp	r3, r2
 1715 0ada 2ED0     		beq	.L245
 216:Drivers/STM32F4xx_HAL_Driver/Src/stm32f4xx_hal_dma_ex.c ****     __HAL_DMA_CLEAR_FLAG (hdma, __HAL_DMA_GET_FE_FLAG_INDEX(hdma));
 1716              		.loc 1 216 0 discriminator 153
 1717 0adc 02F58062 		add	r2, r2, #1024
 1718 0ae0 9342     		cmp	r3, r2
 1719 0ae2 2CD0     		beq	.L246
 216:Drivers/STM32F4xx_HAL_Driver/Src/stm32f4xx_hal_dma_ex.c ****     __HAL_DMA_CLEAR_FLAG (hdma, __HAL_DMA_GET_FE_FLAG_INDEX(hdma));
 1720              		.loc 1 216 0 discriminator 155
 1721 0ae4 A2F56872 		sub	r2, r2, #928
 1722 0ae8 9342     		cmp	r3, r2
 1723 0aea 2AD0     		beq	.L247
 216:Drivers/STM32F4xx_HAL_Driver/Src/stm32f4xx_hal_dma_ex.c ****     __HAL_DMA_CLEAR_FLAG (hdma, __HAL_DMA_GET_FE_FLAG_INDEX(hdma));
 1724              		.loc 1 216 0 discriminator 157
 1725 0aec 02F58062 		add	r2, r2, #1024
 1726 0af0 9342     		cmp	r3, r2
 1727 0af2 28D0     		beq	.L248
 216:Drivers/STM32F4xx_HAL_Driver/Src/stm32f4xx_hal_dma_ex.c ****     __HAL_DMA_CLEAR_FLAG (hdma, __HAL_DMA_GET_FE_FLAG_INDEX(hdma));
 1728              		.loc 1 216 0 discriminator 159
 1729 0af4 A2F58962 		sub	r2, r2, #1096
 1730 0af8 9342     		cmp	r3, r2
 1731 0afa 26D0     		beq	.L249
 216:Drivers/STM32F4xx_HAL_Driver/Src/stm32f4xx_hal_dma_ex.c ****     __HAL_DMA_CLEAR_FLAG (hdma, __HAL_DMA_GET_FE_FLAG_INDEX(hdma));
 1732              		.loc 1 216 0 discriminator 161
 1733 0afc 02F58062 		add	r2, r2, #1024
 1734 0b00 9342     		cmp	r3, r2
 1735 0b02 25D0     		beq	.L250
 216:Drivers/STM32F4xx_HAL_Driver/Src/stm32f4xx_hal_dma_ex.c ****     __HAL_DMA_CLEAR_FLAG (hdma, __HAL_DMA_GET_FE_FLAG_INDEX(hdma));
 1736              		.loc 1 216 0 discriminator 163
 1737 0b04 A2F56872 		sub	r2, r2, #928
 1738 0b08 9342     		cmp	r3, r2
 1739 0b0a 24D0     		beq	.L251
 216:Drivers/STM32F4xx_HAL_Driver/Src/stm32f4xx_hal_dma_ex.c ****     __HAL_DMA_CLEAR_FLAG (hdma, __HAL_DMA_GET_FE_FLAG_INDEX(hdma));
 1740              		.loc 1 216 0 discriminator 165
 1741 0b0c 02F58062 		add	r2, r2, #1024
 1742 0b10 9342     		cmp	r3, r2
 1743 0b12 23D0     		beq	.L252
 216:Drivers/STM32F4xx_HAL_Driver/Src/stm32f4xx_hal_dma_ex.c ****     __HAL_DMA_CLEAR_FLAG (hdma, __HAL_DMA_GET_FE_FLAG_INDEX(hdma));
 1744              		.loc 1 216 0 discriminator 167
 1745 0b14 A2F58962 		sub	r2, r2, #1096
 1746 0b18 9342     		cmp	r3, r2
 1747 0b1a 22D0     		beq	.L253
 216:Drivers/STM32F4xx_HAL_Driver/Src/stm32f4xx_hal_dma_ex.c ****     __HAL_DMA_CLEAR_FLAG (hdma, __HAL_DMA_GET_FE_FLAG_INDEX(hdma));
 1748              		.loc 1 216 0 discriminator 169
 1749 0b1c 02F58062 		add	r2, r2, #1024
 1750 0b20 9342     		cmp	r3, r2
 1751 0b22 21D0     		beq	.L254
 216:Drivers/STM32F4xx_HAL_Driver/Src/stm32f4xx_hal_dma_ex.c ****     __HAL_DMA_CLEAR_FLAG (hdma, __HAL_DMA_GET_FE_FLAG_INDEX(hdma));
 1752              		.loc 1 216 0 discriminator 171
 1753 0b24 A2F56872 		sub	r2, r2, #928
 1754 0b28 9342     		cmp	r3, r2
 1755 0b2a 20D0     		beq	.L255
 216:Drivers/STM32F4xx_HAL_Driver/Src/stm32f4xx_hal_dma_ex.c ****     __HAL_DMA_CLEAR_FLAG (hdma, __HAL_DMA_GET_FE_FLAG_INDEX(hdma));
 1756              		.loc 1 216 0 discriminator 173
 1757 0b2c 02F58062 		add	r2, r2, #1024
 1758 0b30 9342     		cmp	r3, r2
 1759 0b32 2BD1     		bne	.L256
ARM GAS  C:\Users\shun2\AppData\Local\Temp\ccpVPaCt.s 			page 42


 216:Drivers/STM32F4xx_HAL_Driver/Src/stm32f4xx_hal_dma_ex.c ****     __HAL_DMA_CLEAR_FLAG (hdma, __HAL_DMA_GET_FE_FLAG_INDEX(hdma));
 1760              		.loc 1 216 0
 1761 0b34 4FF48023 		mov	r3, #262144
 1762 0b38 2AE0     		b	.L52
 1763              	.L245:
 1764 0b3a 0423     		movs	r3, #4
 1765 0b3c 28E0     		b	.L52
 1766              	.L246:
 1767 0b3e 0423     		movs	r3, #4
 1768 0b40 26E0     		b	.L52
 1769              	.L247:
 1770 0b42 0423     		movs	r3, #4
 1771 0b44 24E0     		b	.L52
 1772              	.L248:
 1773 0b46 0423     		movs	r3, #4
 1774 0b48 22E0     		b	.L52
 1775              	.L249:
 1776 0b4a 4FF48073 		mov	r3, #256
 1777 0b4e 1FE0     		b	.L52
 1778              	.L250:
 1779 0b50 4FF48073 		mov	r3, #256
 1780 0b54 1CE0     		b	.L52
 1781              	.L251:
 1782 0b56 4FF48073 		mov	r3, #256
 1783 0b5a 19E0     		b	.L52
 1784              	.L252:
 1785 0b5c 4FF48073 		mov	r3, #256
 1786 0b60 16E0     		b	.L52
 1787              	.L253:
 1788 0b62 4FF48023 		mov	r3, #262144
 1789 0b66 13E0     		b	.L52
 1790              	.L254:
 1791 0b68 4FF48023 		mov	r3, #262144
 1792 0b6c 10E0     		b	.L52
 1793              	.L255:
 1794 0b6e 4FF48023 		mov	r3, #262144
 1795 0b72 0DE0     		b	.L52
 1796              	.L313:
 1797              		.align	2
 1798              	.L312:
 1799 0b74 00600240 		.word	1073897472
 1800 0b78 58640240 		.word	1073898584
 1801 0b7c 00640240 		.word	1073898496
 1802 0b80 B8600240 		.word	1073897656
 1803 0b84 58600240 		.word	1073897560
 1804 0b88 10600240 		.word	1073897488
 1805              	.L256:
 1806 0b8c 4FF08073 		mov	r3, #16777216
 1807              	.L52:
 216:Drivers/STM32F4xx_HAL_Driver/Src/stm32f4xx_hal_dma_ex.c ****     __HAL_DMA_CLEAR_FLAG (hdma, __HAL_DMA_GET_FE_FLAG_INDEX(hdma));
 1808              		.loc 1 216 0 discriminator 200
 1809 0b90 B64A     		ldr	r2, .L314
 1810 0b92 9360     		str	r3, [r2, #8]
 1811              	.L46:
 217:Drivers/STM32F4xx_HAL_Driver/Src/stm32f4xx_hal_dma_ex.c **** 
 1812              		.loc 1 217 0 is_stmt 1
 1813 0b94 2368     		ldr	r3, [r4]
ARM GAS  C:\Users\shun2\AppData\Local\Temp\ccpVPaCt.s 			page 43


 1814 0b96 B64A     		ldr	r2, .L314+4
 1815 0b98 9342     		cmp	r3, r2
 1816 0b9a 50D9     		bls	.L53
 217:Drivers/STM32F4xx_HAL_Driver/Src/stm32f4xx_hal_dma_ex.c **** 
 1817              		.loc 1 217 0 is_stmt 0 discriminator 1
 1818 0b9c A2F58962 		sub	r2, r2, #1096
 1819 0ba0 9342     		cmp	r3, r2
 1820 0ba2 2ED0     		beq	.L257
 217:Drivers/STM32F4xx_HAL_Driver/Src/stm32f4xx_hal_dma_ex.c **** 
 1821              		.loc 1 217 0 discriminator 3
 1822 0ba4 02F58062 		add	r2, r2, #1024
 1823 0ba8 9342     		cmp	r3, r2
 1824 0baa 2CD0     		beq	.L258
 217:Drivers/STM32F4xx_HAL_Driver/Src/stm32f4xx_hal_dma_ex.c **** 
 1825              		.loc 1 217 0 discriminator 5
 1826 0bac A2F56872 		sub	r2, r2, #928
 1827 0bb0 9342     		cmp	r3, r2
 1828 0bb2 2AD0     		beq	.L259
 217:Drivers/STM32F4xx_HAL_Driver/Src/stm32f4xx_hal_dma_ex.c **** 
 1829              		.loc 1 217 0 discriminator 7
 1830 0bb4 02F58062 		add	r2, r2, #1024
 1831 0bb8 9342     		cmp	r3, r2
 1832 0bba 28D0     		beq	.L260
 217:Drivers/STM32F4xx_HAL_Driver/Src/stm32f4xx_hal_dma_ex.c **** 
 1833              		.loc 1 217 0 discriminator 9
 1834 0bbc A2F58962 		sub	r2, r2, #1096
 1835 0bc0 9342     		cmp	r3, r2
 1836 0bc2 26D0     		beq	.L261
 217:Drivers/STM32F4xx_HAL_Driver/Src/stm32f4xx_hal_dma_ex.c **** 
 1837              		.loc 1 217 0 discriminator 11
 1838 0bc4 02F58062 		add	r2, r2, #1024
 1839 0bc8 9342     		cmp	r3, r2
 1840 0bca 24D0     		beq	.L262
 217:Drivers/STM32F4xx_HAL_Driver/Src/stm32f4xx_hal_dma_ex.c **** 
 1841              		.loc 1 217 0 discriminator 13
 1842 0bcc A2F56872 		sub	r2, r2, #928
 1843 0bd0 9342     		cmp	r3, r2
 1844 0bd2 22D0     		beq	.L263
 217:Drivers/STM32F4xx_HAL_Driver/Src/stm32f4xx_hal_dma_ex.c **** 
 1845              		.loc 1 217 0 discriminator 15
 1846 0bd4 02F58062 		add	r2, r2, #1024
 1847 0bd8 9342     		cmp	r3, r2
 1848 0bda 20D0     		beq	.L264
 217:Drivers/STM32F4xx_HAL_Driver/Src/stm32f4xx_hal_dma_ex.c **** 
 1849              		.loc 1 217 0 discriminator 17
 1850 0bdc A2F58962 		sub	r2, r2, #1096
 1851 0be0 9342     		cmp	r3, r2
 1852 0be2 1ED0     		beq	.L265
 217:Drivers/STM32F4xx_HAL_Driver/Src/stm32f4xx_hal_dma_ex.c **** 
 1853              		.loc 1 217 0 discriminator 19
 1854 0be4 02F58062 		add	r2, r2, #1024
 1855 0be8 9342     		cmp	r3, r2
 1856 0bea 1DD0     		beq	.L266
 217:Drivers/STM32F4xx_HAL_Driver/Src/stm32f4xx_hal_dma_ex.c **** 
 1857              		.loc 1 217 0 discriminator 21
 1858 0bec A2F56872 		sub	r2, r2, #928
 1859 0bf0 9342     		cmp	r3, r2
ARM GAS  C:\Users\shun2\AppData\Local\Temp\ccpVPaCt.s 			page 44


 1860 0bf2 1CD0     		beq	.L267
 217:Drivers/STM32F4xx_HAL_Driver/Src/stm32f4xx_hal_dma_ex.c **** 
 1861              		.loc 1 217 0 discriminator 23
 1862 0bf4 02F58062 		add	r2, r2, #1024
 1863 0bf8 9342     		cmp	r3, r2
 1864 0bfa 1BD1     		bne	.L268
 217:Drivers/STM32F4xx_HAL_Driver/Src/stm32f4xx_hal_dma_ex.c **** 
 1865              		.loc 1 217 0
 1866 0bfc 4FF48033 		mov	r3, #65536
 1867 0c00 1AE0     		b	.L54
 1868              	.L257:
 1869 0c02 0123     		movs	r3, #1
 1870 0c04 18E0     		b	.L54
 1871              	.L258:
 1872 0c06 0123     		movs	r3, #1
 1873 0c08 16E0     		b	.L54
 1874              	.L259:
 1875 0c0a 0123     		movs	r3, #1
 1876 0c0c 14E0     		b	.L54
 1877              	.L260:
 1878 0c0e 0123     		movs	r3, #1
 1879 0c10 12E0     		b	.L54
 1880              	.L261:
 1881 0c12 4023     		movs	r3, #64
 1882 0c14 10E0     		b	.L54
 1883              	.L262:
 1884 0c16 4023     		movs	r3, #64
 1885 0c18 0EE0     		b	.L54
 1886              	.L263:
 1887 0c1a 4023     		movs	r3, #64
 1888 0c1c 0CE0     		b	.L54
 1889              	.L264:
 1890 0c1e 4023     		movs	r3, #64
 1891 0c20 0AE0     		b	.L54
 1892              	.L265:
 1893 0c22 4FF48033 		mov	r3, #65536
 1894 0c26 07E0     		b	.L54
 1895              	.L266:
 1896 0c28 4FF48033 		mov	r3, #65536
 1897 0c2c 04E0     		b	.L54
 1898              	.L267:
 1899 0c2e 4FF48033 		mov	r3, #65536
 1900 0c32 01E0     		b	.L54
 1901              	.L268:
 1902 0c34 4FF48003 		mov	r3, #4194304
 1903              	.L54:
 217:Drivers/STM32F4xx_HAL_Driver/Src/stm32f4xx_hal_dma_ex.c **** 
 1904              		.loc 1 217 0 discriminator 50
 1905 0c38 8E4A     		ldr	r2, .L314+8
 1906 0c3a D360     		str	r3, [r2, #12]
 1907 0c3c F4E0     		b	.L55
 1908              	.L53:
 217:Drivers/STM32F4xx_HAL_Driver/Src/stm32f4xx_hal_dma_ex.c **** 
 1909              		.loc 1 217 0 discriminator 2
 1910 0c3e 8E4A     		ldr	r2, .L314+12
 1911 0c40 9342     		cmp	r3, r2
 1912 0c42 4FD9     		bls	.L56
ARM GAS  C:\Users\shun2\AppData\Local\Temp\ccpVPaCt.s 			page 45


 217:Drivers/STM32F4xx_HAL_Driver/Src/stm32f4xx_hal_dma_ex.c **** 
 1913              		.loc 1 217 0 discriminator 51
 1914 0c44 A83A     		subs	r2, r2, #168
 1915 0c46 9342     		cmp	r3, r2
 1916 0c48 2ED0     		beq	.L269
 217:Drivers/STM32F4xx_HAL_Driver/Src/stm32f4xx_hal_dma_ex.c **** 
 1917              		.loc 1 217 0 discriminator 53
 1918 0c4a 02F58062 		add	r2, r2, #1024
 1919 0c4e 9342     		cmp	r3, r2
 1920 0c50 2CD0     		beq	.L270
 217:Drivers/STM32F4xx_HAL_Driver/Src/stm32f4xx_hal_dma_ex.c **** 
 1921              		.loc 1 217 0 discriminator 55
 1922 0c52 A2F56872 		sub	r2, r2, #928
 1923 0c56 9342     		cmp	r3, r2
 1924 0c58 2AD0     		beq	.L271
 217:Drivers/STM32F4xx_HAL_Driver/Src/stm32f4xx_hal_dma_ex.c **** 
 1925              		.loc 1 217 0 discriminator 57
 1926 0c5a 02F58062 		add	r2, r2, #1024
 1927 0c5e 9342     		cmp	r3, r2
 1928 0c60 28D0     		beq	.L272
 217:Drivers/STM32F4xx_HAL_Driver/Src/stm32f4xx_hal_dma_ex.c **** 
 1929              		.loc 1 217 0 discriminator 59
 1930 0c62 A2F58962 		sub	r2, r2, #1096
 1931 0c66 9342     		cmp	r3, r2
 1932 0c68 26D0     		beq	.L273
 217:Drivers/STM32F4xx_HAL_Driver/Src/stm32f4xx_hal_dma_ex.c **** 
 1933              		.loc 1 217 0 discriminator 61
 1934 0c6a 02F58062 		add	r2, r2, #1024
 1935 0c6e 9342     		cmp	r3, r2
 1936 0c70 24D0     		beq	.L274
 217:Drivers/STM32F4xx_HAL_Driver/Src/stm32f4xx_hal_dma_ex.c **** 
 1937              		.loc 1 217 0 discriminator 63
 1938 0c72 A2F56872 		sub	r2, r2, #928
 1939 0c76 9342     		cmp	r3, r2
 1940 0c78 22D0     		beq	.L275
 217:Drivers/STM32F4xx_HAL_Driver/Src/stm32f4xx_hal_dma_ex.c **** 
 1941              		.loc 1 217 0 discriminator 65
 1942 0c7a 02F58062 		add	r2, r2, #1024
 1943 0c7e 9342     		cmp	r3, r2
 1944 0c80 20D0     		beq	.L276
 217:Drivers/STM32F4xx_HAL_Driver/Src/stm32f4xx_hal_dma_ex.c **** 
 1945              		.loc 1 217 0 discriminator 67
 1946 0c82 A2F58962 		sub	r2, r2, #1096
 1947 0c86 9342     		cmp	r3, r2
 1948 0c88 1ED0     		beq	.L277
 217:Drivers/STM32F4xx_HAL_Driver/Src/stm32f4xx_hal_dma_ex.c **** 
 1949              		.loc 1 217 0 discriminator 69
 1950 0c8a 02F58062 		add	r2, r2, #1024
 1951 0c8e 9342     		cmp	r3, r2
 1952 0c90 1DD0     		beq	.L278
 217:Drivers/STM32F4xx_HAL_Driver/Src/stm32f4xx_hal_dma_ex.c **** 
 1953              		.loc 1 217 0 discriminator 71
 1954 0c92 A2F56872 		sub	r2, r2, #928
 1955 0c96 9342     		cmp	r3, r2
 1956 0c98 1CD0     		beq	.L279
 217:Drivers/STM32F4xx_HAL_Driver/Src/stm32f4xx_hal_dma_ex.c **** 
 1957              		.loc 1 217 0 discriminator 73
ARM GAS  C:\Users\shun2\AppData\Local\Temp\ccpVPaCt.s 			page 46


 1958 0c9a 02F58062 		add	r2, r2, #1024
 1959 0c9e 9342     		cmp	r3, r2
 1960 0ca0 1BD1     		bne	.L280
 217:Drivers/STM32F4xx_HAL_Driver/Src/stm32f4xx_hal_dma_ex.c **** 
 1961              		.loc 1 217 0
 1962 0ca2 4FF48033 		mov	r3, #65536
 1963 0ca6 1AE0     		b	.L57
 1964              	.L269:
 1965 0ca8 0123     		movs	r3, #1
 1966 0caa 18E0     		b	.L57
 1967              	.L270:
 1968 0cac 0123     		movs	r3, #1
 1969 0cae 16E0     		b	.L57
 1970              	.L271:
 1971 0cb0 0123     		movs	r3, #1
 1972 0cb2 14E0     		b	.L57
 1973              	.L272:
 1974 0cb4 0123     		movs	r3, #1
 1975 0cb6 12E0     		b	.L57
 1976              	.L273:
 1977 0cb8 4023     		movs	r3, #64
 1978 0cba 10E0     		b	.L57
 1979              	.L274:
 1980 0cbc 4023     		movs	r3, #64
 1981 0cbe 0EE0     		b	.L57
 1982              	.L275:
 1983 0cc0 4023     		movs	r3, #64
 1984 0cc2 0CE0     		b	.L57
 1985              	.L276:
 1986 0cc4 4023     		movs	r3, #64
 1987 0cc6 0AE0     		b	.L57
 1988              	.L277:
 1989 0cc8 4FF48033 		mov	r3, #65536
 1990 0ccc 07E0     		b	.L57
 1991              	.L278:
 1992 0cce 4FF48033 		mov	r3, #65536
 1993 0cd2 04E0     		b	.L57
 1994              	.L279:
 1995 0cd4 4FF48033 		mov	r3, #65536
 1996 0cd8 01E0     		b	.L57
 1997              	.L280:
 1998 0cda 4FF48003 		mov	r3, #4194304
 1999              	.L57:
 217:Drivers/STM32F4xx_HAL_Driver/Src/stm32f4xx_hal_dma_ex.c **** 
 2000              		.loc 1 217 0 discriminator 100
 2001 0cde 654A     		ldr	r2, .L314+8
 2002 0ce0 9360     		str	r3, [r2, #8]
 2003 0ce2 A1E0     		b	.L55
 2004              	.L56:
 217:Drivers/STM32F4xx_HAL_Driver/Src/stm32f4xx_hal_dma_ex.c **** 
 2005              		.loc 1 217 0 discriminator 52
 2006 0ce4 654A     		ldr	r2, .L314+16
 2007 0ce6 9342     		cmp	r3, r2
 2008 0ce8 4FD9     		bls	.L59
 217:Drivers/STM32F4xx_HAL_Driver/Src/stm32f4xx_hal_dma_ex.c **** 
 2009              		.loc 1 217 0 discriminator 102
 2010 0cea 483A     		subs	r2, r2, #72
ARM GAS  C:\Users\shun2\AppData\Local\Temp\ccpVPaCt.s 			page 47


 2011 0cec 9342     		cmp	r3, r2
 2012 0cee 2ED0     		beq	.L281
 217:Drivers/STM32F4xx_HAL_Driver/Src/stm32f4xx_hal_dma_ex.c **** 
 2013              		.loc 1 217 0 discriminator 104
 2014 0cf0 02F58062 		add	r2, r2, #1024
 2015 0cf4 9342     		cmp	r3, r2
 2016 0cf6 2CD0     		beq	.L282
 217:Drivers/STM32F4xx_HAL_Driver/Src/stm32f4xx_hal_dma_ex.c **** 
 2017              		.loc 1 217 0 discriminator 106
 2018 0cf8 A2F56872 		sub	r2, r2, #928
 2019 0cfc 9342     		cmp	r3, r2
 2020 0cfe 2AD0     		beq	.L283
 217:Drivers/STM32F4xx_HAL_Driver/Src/stm32f4xx_hal_dma_ex.c **** 
 2021              		.loc 1 217 0 discriminator 108
 2022 0d00 02F58062 		add	r2, r2, #1024
 2023 0d04 9342     		cmp	r3, r2
 2024 0d06 28D0     		beq	.L284
 217:Drivers/STM32F4xx_HAL_Driver/Src/stm32f4xx_hal_dma_ex.c **** 
 2025              		.loc 1 217 0 discriminator 110
 2026 0d08 A2F58962 		sub	r2, r2, #1096
 2027 0d0c 9342     		cmp	r3, r2
 2028 0d0e 26D0     		beq	.L285
 217:Drivers/STM32F4xx_HAL_Driver/Src/stm32f4xx_hal_dma_ex.c **** 
 2029              		.loc 1 217 0 discriminator 112
 2030 0d10 02F58062 		add	r2, r2, #1024
 2031 0d14 9342     		cmp	r3, r2
 2032 0d16 24D0     		beq	.L286
 217:Drivers/STM32F4xx_HAL_Driver/Src/stm32f4xx_hal_dma_ex.c **** 
 2033              		.loc 1 217 0 discriminator 114
 2034 0d18 A2F56872 		sub	r2, r2, #928
 2035 0d1c 9342     		cmp	r3, r2
 2036 0d1e 22D0     		beq	.L287
 217:Drivers/STM32F4xx_HAL_Driver/Src/stm32f4xx_hal_dma_ex.c **** 
 2037              		.loc 1 217 0 discriminator 116
 2038 0d20 02F58062 		add	r2, r2, #1024
 2039 0d24 9342     		cmp	r3, r2
 2040 0d26 20D0     		beq	.L288
 217:Drivers/STM32F4xx_HAL_Driver/Src/stm32f4xx_hal_dma_ex.c **** 
 2041              		.loc 1 217 0 discriminator 118
 2042 0d28 A2F58962 		sub	r2, r2, #1096
 2043 0d2c 9342     		cmp	r3, r2
 2044 0d2e 1ED0     		beq	.L289
 217:Drivers/STM32F4xx_HAL_Driver/Src/stm32f4xx_hal_dma_ex.c **** 
 2045              		.loc 1 217 0 discriminator 120
 2046 0d30 02F58062 		add	r2, r2, #1024
 2047 0d34 9342     		cmp	r3, r2
 2048 0d36 1DD0     		beq	.L290
 217:Drivers/STM32F4xx_HAL_Driver/Src/stm32f4xx_hal_dma_ex.c **** 
 2049              		.loc 1 217 0 discriminator 122
 2050 0d38 A2F56872 		sub	r2, r2, #928
 2051 0d3c 9342     		cmp	r3, r2
 2052 0d3e 1CD0     		beq	.L291
 217:Drivers/STM32F4xx_HAL_Driver/Src/stm32f4xx_hal_dma_ex.c **** 
 2053              		.loc 1 217 0 discriminator 124
 2054 0d40 02F58062 		add	r2, r2, #1024
 2055 0d44 9342     		cmp	r3, r2
 2056 0d46 1BD1     		bne	.L292
ARM GAS  C:\Users\shun2\AppData\Local\Temp\ccpVPaCt.s 			page 48


 217:Drivers/STM32F4xx_HAL_Driver/Src/stm32f4xx_hal_dma_ex.c **** 
 2057              		.loc 1 217 0
 2058 0d48 4FF48033 		mov	r3, #65536
 2059 0d4c 1AE0     		b	.L60
 2060              	.L281:
 2061 0d4e 0123     		movs	r3, #1
 2062 0d50 18E0     		b	.L60
 2063              	.L282:
 2064 0d52 0123     		movs	r3, #1
 2065 0d54 16E0     		b	.L60
 2066              	.L283:
 2067 0d56 0123     		movs	r3, #1
 2068 0d58 14E0     		b	.L60
 2069              	.L284:
 2070 0d5a 0123     		movs	r3, #1
 2071 0d5c 12E0     		b	.L60
 2072              	.L285:
 2073 0d5e 4023     		movs	r3, #64
 2074 0d60 10E0     		b	.L60
 2075              	.L286:
 2076 0d62 4023     		movs	r3, #64
 2077 0d64 0EE0     		b	.L60
 2078              	.L287:
 2079 0d66 4023     		movs	r3, #64
 2080 0d68 0CE0     		b	.L60
 2081              	.L288:
 2082 0d6a 4023     		movs	r3, #64
 2083 0d6c 0AE0     		b	.L60
 2084              	.L289:
 2085 0d6e 4FF48033 		mov	r3, #65536
 2086 0d72 07E0     		b	.L60
 2087              	.L290:
 2088 0d74 4FF48033 		mov	r3, #65536
 2089 0d78 04E0     		b	.L60
 2090              	.L291:
 2091 0d7a 4FF48033 		mov	r3, #65536
 2092 0d7e 01E0     		b	.L60
 2093              	.L292:
 2094 0d80 4FF48003 		mov	r3, #4194304
 2095              	.L60:
 217:Drivers/STM32F4xx_HAL_Driver/Src/stm32f4xx_hal_dma_ex.c **** 
 2096              		.loc 1 217 0 discriminator 151
 2097 0d84 394A     		ldr	r2, .L314
 2098 0d86 D360     		str	r3, [r2, #12]
 2099 0d88 4EE0     		b	.L55
 2100              	.L59:
 217:Drivers/STM32F4xx_HAL_Driver/Src/stm32f4xx_hal_dma_ex.c **** 
 2101              		.loc 1 217 0 discriminator 103
 2102 0d8a 3D4A     		ldr	r2, .L314+20
 2103 0d8c 9342     		cmp	r3, r2
 2104 0d8e 2ED0     		beq	.L293
 217:Drivers/STM32F4xx_HAL_Driver/Src/stm32f4xx_hal_dma_ex.c **** 
 2105              		.loc 1 217 0 discriminator 153
 2106 0d90 02F58062 		add	r2, r2, #1024
 2107 0d94 9342     		cmp	r3, r2
 2108 0d96 2CD0     		beq	.L294
 217:Drivers/STM32F4xx_HAL_Driver/Src/stm32f4xx_hal_dma_ex.c **** 
ARM GAS  C:\Users\shun2\AppData\Local\Temp\ccpVPaCt.s 			page 49


 2109              		.loc 1 217 0 discriminator 155
 2110 0d98 A2F56872 		sub	r2, r2, #928
 2111 0d9c 9342     		cmp	r3, r2
 2112 0d9e 2AD0     		beq	.L295
 217:Drivers/STM32F4xx_HAL_Driver/Src/stm32f4xx_hal_dma_ex.c **** 
 2113              		.loc 1 217 0 discriminator 157
 2114 0da0 02F58062 		add	r2, r2, #1024
 2115 0da4 9342     		cmp	r3, r2
 2116 0da6 28D0     		beq	.L296
 217:Drivers/STM32F4xx_HAL_Driver/Src/stm32f4xx_hal_dma_ex.c **** 
 2117              		.loc 1 217 0 discriminator 159
 2118 0da8 A2F58962 		sub	r2, r2, #1096
 2119 0dac 9342     		cmp	r3, r2
 2120 0dae 26D0     		beq	.L297
 217:Drivers/STM32F4xx_HAL_Driver/Src/stm32f4xx_hal_dma_ex.c **** 
 2121              		.loc 1 217 0 discriminator 161
 2122 0db0 02F58062 		add	r2, r2, #1024
 2123 0db4 9342     		cmp	r3, r2
 2124 0db6 24D0     		beq	.L298
 217:Drivers/STM32F4xx_HAL_Driver/Src/stm32f4xx_hal_dma_ex.c **** 
 2125              		.loc 1 217 0 discriminator 163
 2126 0db8 A2F56872 		sub	r2, r2, #928
 2127 0dbc 9342     		cmp	r3, r2
 2128 0dbe 22D0     		beq	.L299
 217:Drivers/STM32F4xx_HAL_Driver/Src/stm32f4xx_hal_dma_ex.c **** 
 2129              		.loc 1 217 0 discriminator 165
 2130 0dc0 02F58062 		add	r2, r2, #1024
 2131 0dc4 9342     		cmp	r3, r2
 2132 0dc6 20D0     		beq	.L300
 217:Drivers/STM32F4xx_HAL_Driver/Src/stm32f4xx_hal_dma_ex.c **** 
 2133              		.loc 1 217 0 discriminator 167
 2134 0dc8 A2F58962 		sub	r2, r2, #1096
 2135 0dcc 9342     		cmp	r3, r2
 2136 0dce 1ED0     		beq	.L301
 217:Drivers/STM32F4xx_HAL_Driver/Src/stm32f4xx_hal_dma_ex.c **** 
 2137              		.loc 1 217 0 discriminator 169
 2138 0dd0 02F58062 		add	r2, r2, #1024
 2139 0dd4 9342     		cmp	r3, r2
 2140 0dd6 1DD0     		beq	.L302
 217:Drivers/STM32F4xx_HAL_Driver/Src/stm32f4xx_hal_dma_ex.c **** 
 2141              		.loc 1 217 0 discriminator 171
 2142 0dd8 A2F56872 		sub	r2, r2, #928
 2143 0ddc 9342     		cmp	r3, r2
 2144 0dde 1CD0     		beq	.L303
 217:Drivers/STM32F4xx_HAL_Driver/Src/stm32f4xx_hal_dma_ex.c **** 
 2145              		.loc 1 217 0 discriminator 173
 2146 0de0 02F58062 		add	r2, r2, #1024
 2147 0de4 9342     		cmp	r3, r2
 2148 0de6 1BD1     		bne	.L304
 217:Drivers/STM32F4xx_HAL_Driver/Src/stm32f4xx_hal_dma_ex.c **** 
 2149              		.loc 1 217 0
 2150 0de8 4FF48033 		mov	r3, #65536
 2151 0dec 1AE0     		b	.L61
 2152              	.L293:
 2153 0dee 0123     		movs	r3, #1
 2154 0df0 18E0     		b	.L61
 2155              	.L294:
ARM GAS  C:\Users\shun2\AppData\Local\Temp\ccpVPaCt.s 			page 50


 2156 0df2 0123     		movs	r3, #1
 2157 0df4 16E0     		b	.L61
 2158              	.L295:
 2159 0df6 0123     		movs	r3, #1
 2160 0df8 14E0     		b	.L61
 2161              	.L296:
 2162 0dfa 0123     		movs	r3, #1
 2163 0dfc 12E0     		b	.L61
 2164              	.L297:
 2165 0dfe 4023     		movs	r3, #64
 2166 0e00 10E0     		b	.L61
 2167              	.L298:
 2168 0e02 4023     		movs	r3, #64
 2169 0e04 0EE0     		b	.L61
 2170              	.L299:
 2171 0e06 4023     		movs	r3, #64
 2172 0e08 0CE0     		b	.L61
 2173              	.L300:
 2174 0e0a 4023     		movs	r3, #64
 2175 0e0c 0AE0     		b	.L61
 2176              	.L301:
 2177 0e0e 4FF48033 		mov	r3, #65536
 2178 0e12 07E0     		b	.L61
 2179              	.L302:
 2180 0e14 4FF48033 		mov	r3, #65536
 2181 0e18 04E0     		b	.L61
 2182              	.L303:
 2183 0e1a 4FF48033 		mov	r3, #65536
 2184 0e1e 01E0     		b	.L61
 2185              	.L304:
 2186 0e20 4FF48003 		mov	r3, #4194304
 2187              	.L61:
 217:Drivers/STM32F4xx_HAL_Driver/Src/stm32f4xx_hal_dma_ex.c **** 
 2188              		.loc 1 217 0 discriminator 200
 2189 0e24 114A     		ldr	r2, .L314
 2190 0e26 9360     		str	r3, [r2, #8]
 2191              	.L55:
 220:Drivers/STM32F4xx_HAL_Driver/Src/stm32f4xx_hal_dma_ex.c ****     hdma->Instance->FCR |= DMA_IT_FE;
 2192              		.loc 1 220 0 is_stmt 1
 2193 0e28 2268     		ldr	r2, [r4]
 2194 0e2a 1368     		ldr	r3, [r2]
 2195 0e2c 43F01603 		orr	r3, r3, #22
 2196 0e30 1360     		str	r3, [r2]
 221:Drivers/STM32F4xx_HAL_Driver/Src/stm32f4xx_hal_dma_ex.c ****     
 2197              		.loc 1 221 0
 2198 0e32 2268     		ldr	r2, [r4]
 2199 0e34 5369     		ldr	r3, [r2, #20]
 2200 0e36 43F08003 		orr	r3, r3, #128
 2201 0e3a 5361     		str	r3, [r2, #20]
 223:Drivers/STM32F4xx_HAL_Driver/Src/stm32f4xx_hal_dma_ex.c ****     {
 2202              		.loc 1 223 0
 2203 0e3c 236C     		ldr	r3, [r4, #64]
 2204 0e3e 0BB9     		cbnz	r3, .L62
 223:Drivers/STM32F4xx_HAL_Driver/Src/stm32f4xx_hal_dma_ex.c ****     {
 2205              		.loc 1 223 0 is_stmt 0 discriminator 1
 2206 0e40 A36C     		ldr	r3, [r4, #72]
 2207 0e42 23B1     		cbz	r3, .L63
ARM GAS  C:\Users\shun2\AppData\Local\Temp\ccpVPaCt.s 			page 51


 2208              	.L62:
 225:Drivers/STM32F4xx_HAL_Driver/Src/stm32f4xx_hal_dma_ex.c ****     }
 2209              		.loc 1 225 0 is_stmt 1
 2210 0e44 2268     		ldr	r2, [r4]
 2211 0e46 1368     		ldr	r3, [r2]
 2212 0e48 43F00803 		orr	r3, r3, #8
 2213 0e4c 1360     		str	r3, [r2]
 2214              	.L63:
 229:Drivers/STM32F4xx_HAL_Driver/Src/stm32f4xx_hal_dma_ex.c ****   }
 2215              		.loc 1 229 0
 2216 0e4e 2268     		ldr	r2, [r4]
 2217 0e50 1368     		ldr	r3, [r2]
 2218 0e52 43F00103 		orr	r3, r3, #1
 2219 0e56 1360     		str	r3, [r2]
 173:Drivers/STM32F4xx_HAL_Driver/Src/stm32f4xx_hal_dma_ex.c ****   
 2220              		.loc 1 173 0
 2221 0e58 0020     		movs	r0, #0
 2222 0e5a 38BD     		pop	{r3, r4, r5, pc}
 2223              	.LVL31:
 2224              	.L16:
 234:Drivers/STM32F4xx_HAL_Driver/Src/stm32f4xx_hal_dma_ex.c ****     
 2225              		.loc 1 234 0
 2226 0e5c 0023     		movs	r3, #0
 2227              	.LVL32:
 2228 0e5e 80F83430 		strb	r3, [r0, #52]
 2229              	.LVL33:
 237:Drivers/STM32F4xx_HAL_Driver/Src/stm32f4xx_hal_dma_ex.c ****   }  
 2230              		.loc 1 237 0
 2231 0e62 0220     		movs	r0, #2
 2232              	.LVL34:
 2233 0e64 38BD     		pop	{r3, r4, r5, pc}
 2234              	.LVL35:
 2235              	.L64:
 193:Drivers/STM32F4xx_HAL_Driver/Src/stm32f4xx_hal_dma_ex.c ****   
 2236              		.loc 1 193 0
 2237 0e66 0220     		movs	r0, #2
 2238              	.LVL36:
 240:Drivers/STM32F4xx_HAL_Driver/Src/stm32f4xx_hal_dma_ex.c **** 
 2239              		.loc 1 240 0
 2240 0e68 38BD     		pop	{r3, r4, r5, pc}
 2241              	.LVL37:
 2242              	.L315:
 2243 0e6a 00BF     		.align	2
 2244              	.L314:
 2245 0e6c 00600240 		.word	1073897472
 2246 0e70 58640240 		.word	1073898584
 2247 0e74 00640240 		.word	1073898496
 2248 0e78 B8600240 		.word	1073897656
 2249 0e7c 58600240 		.word	1073897560
 2250 0e80 10600240 		.word	1073897488
 2251              		.cfi_endproc
 2252              	.LFE125:
 2254              		.section	.text.HAL_DMAEx_ChangeMemory,"ax",%progbits
 2255              		.align	2
 2256              		.global	HAL_DMAEx_ChangeMemory
 2257              		.thumb
 2258              		.thumb_func
ARM GAS  C:\Users\shun2\AppData\Local\Temp\ccpVPaCt.s 			page 52


 2260              	HAL_DMAEx_ChangeMemory:
 2261              	.LFB126:
 257:Drivers/STM32F4xx_HAL_Driver/Src/stm32f4xx_hal_dma_ex.c ****   if(memory == MEMORY0)
 2262              		.loc 1 257 0
 2263              		.cfi_startproc
 2264              		@ args = 0, pretend = 0, frame = 0
 2265              		@ frame_needed = 0, uses_anonymous_args = 0
 2266              		@ link register save eliminated.
 2267              	.LVL38:
 258:Drivers/STM32F4xx_HAL_Driver/Src/stm32f4xx_hal_dma_ex.c ****   {
 2268              		.loc 1 258 0
 2269 0000 12B9     		cbnz	r2, .L317
 261:Drivers/STM32F4xx_HAL_Driver/Src/stm32f4xx_hal_dma_ex.c ****   }
 2270              		.loc 1 261 0
 2271 0002 0368     		ldr	r3, [r0]
 2272 0004 D960     		str	r1, [r3, #12]
 2273 0006 01E0     		b	.L318
 2274              	.L317:
 266:Drivers/STM32F4xx_HAL_Driver/Src/stm32f4xx_hal_dma_ex.c ****   }
 2275              		.loc 1 266 0
 2276 0008 0368     		ldr	r3, [r0]
 2277 000a 1961     		str	r1, [r3, #16]
 2278              	.L318:
 270:Drivers/STM32F4xx_HAL_Driver/Src/stm32f4xx_hal_dma_ex.c **** 
 2279              		.loc 1 270 0
 2280 000c 0020     		movs	r0, #0
 2281              	.LVL39:
 2282 000e 7047     		bx	lr
 2283              		.cfi_endproc
 2284              	.LFE126:
 2286              		.text
 2287              	.Letext0:
 2288              		.file 2 "c:\\program files (x86)\\gnu tools arm embedded\\5.4 2016q3\\arm-none-eabi\\include\\mach
 2289              		.file 3 "c:\\program files (x86)\\gnu tools arm embedded\\5.4 2016q3\\arm-none-eabi\\include\\sys\
 2290              		.file 4 "Drivers/CMSIS/Device/ST/STM32F4xx/Include/stm32f429xx.h"
 2291              		.file 5 "Drivers/STM32F4xx_HAL_Driver/Inc/stm32f4xx_hal_def.h"
 2292              		.file 6 "Drivers/STM32F4xx_HAL_Driver/Inc/stm32f4xx_hal_dma.h"
 2293              		.file 7 "Drivers/STM32F4xx_HAL_Driver/Inc/stm32f4xx_hal_dma_ex.h"
 2294              		.file 8 "Drivers/CMSIS/Include/core_cm4.h"
ARM GAS  C:\Users\shun2\AppData\Local\Temp\ccpVPaCt.s 			page 53

