ARM GAS  C:\Users\shun2\AppData\Local\Temp\ccjczDvu.s 			page 1


   1              		.syntax unified
   2              		.cpu cortex-m4
   3              		.eabi_attribute 27, 1
   4              		.eabi_attribute 28, 1
   5              		.fpu fpv4-sp-d16
   6              		.eabi_attribute 20, 1
   7              		.eabi_attribute 21, 1
   8              		.eabi_attribute 23, 3
   9              		.eabi_attribute 24, 1
  10              		.eabi_attribute 25, 1
  11              		.eabi_attribute 26, 1
  12              		.eabi_attribute 30, 1
  13              		.eabi_attribute 34, 1
  14              		.eabi_attribute 18, 4
  15              		.thumb
  16              		.syntax unified
  17              		.file	"tim.c"
  18              		.text
  19              	.Ltext0:
  20              		.cfi_sections	.debug_frame
  21              		.section	.text.MX_TIM2_Init,"ax",%progbits
  22              		.align	2
  23              		.global	MX_TIM2_Init
  24              		.thumb
  25              		.thumb_func
  27              	MX_TIM2_Init:
  28              	.LFB125:
  29              		.file 1 "Src/tim.c"
   1:Src/tim.c     **** /**
   2:Src/tim.c     ****   ******************************************************************************
   3:Src/tim.c     ****   * File Name          : TIM.c
   4:Src/tim.c     ****   * Description        : This file provides code for the configuration
   5:Src/tim.c     ****   *                      of the TIM instances.
   6:Src/tim.c     ****   ******************************************************************************
   7:Src/tim.c     ****   ** This notice applies to any and all portions of this file
   8:Src/tim.c     ****   * that are not between comment pairs USER CODE BEGIN and
   9:Src/tim.c     ****   * USER CODE END. Other portions of this file, whether 
  10:Src/tim.c     ****   * inserted by the user or by software development tools
  11:Src/tim.c     ****   * are owned by their respective copyright owners.
  12:Src/tim.c     ****   *
  13:Src/tim.c     ****   * COPYRIGHT(c) 2019 STMicroelectronics
  14:Src/tim.c     ****   *
  15:Src/tim.c     ****   * Redistribution and use in source and binary forms, with or without modification,
  16:Src/tim.c     ****   * are permitted provided that the following conditions are met:
  17:Src/tim.c     ****   *   1. Redistributions of source code must retain the above copyright notice,
  18:Src/tim.c     ****   *      this list of conditions and the following disclaimer.
  19:Src/tim.c     ****   *   2. Redistributions in binary form must reproduce the above copyright notice,
  20:Src/tim.c     ****   *      this list of conditions and the following disclaimer in the documentation
  21:Src/tim.c     ****   *      and/or other materials provided with the distribution.
  22:Src/tim.c     ****   *   3. Neither the name of STMicroelectronics nor the names of its contributors
  23:Src/tim.c     ****   *      may be used to endorse or promote products derived from this software
  24:Src/tim.c     ****   *      without specific prior written permission.
  25:Src/tim.c     ****   *
  26:Src/tim.c     ****   * THIS SOFTWARE IS PROVIDED BY THE COPYRIGHT HOLDERS AND CONTRIBUTORS "AS IS"
  27:Src/tim.c     ****   * AND ANY EXPRESS OR IMPLIED WARRANTIES, INCLUDING, BUT NOT LIMITED TO, THE
  28:Src/tim.c     ****   * IMPLIED WARRANTIES OF MERCHANTABILITY AND FITNESS FOR A PARTICULAR PURPOSE ARE
  29:Src/tim.c     ****   * DISCLAIMED. IN NO EVENT SHALL THE COPYRIGHT HOLDER OR CONTRIBUTORS BE LIABLE
ARM GAS  C:\Users\shun2\AppData\Local\Temp\ccjczDvu.s 			page 2


  30:Src/tim.c     ****   * FOR ANY DIRECT, INDIRECT, INCIDENTAL, SPECIAL, EXEMPLARY, OR CONSEQUENTIAL
  31:Src/tim.c     ****   * DAMAGES (INCLUDING, BUT NOT LIMITED TO, PROCUREMENT OF SUBSTITUTE GOODS OR
  32:Src/tim.c     ****   * SERVICES; LOSS OF USE, DATA, OR PROFITS; OR BUSINESS INTERRUPTION) HOWEVER
  33:Src/tim.c     ****   * CAUSED AND ON ANY THEORY OF LIABILITY, WHETHER IN CONTRACT, STRICT LIABILITY,
  34:Src/tim.c     ****   * OR TORT (INCLUDING NEGLIGENCE OR OTHERWISE) ARISING IN ANY WAY OUT OF THE USE
  35:Src/tim.c     ****   * OF THIS SOFTWARE, EVEN IF ADVISED OF THE POSSIBILITY OF SUCH DAMAGE.
  36:Src/tim.c     ****   *
  37:Src/tim.c     ****   ******************************************************************************
  38:Src/tim.c     ****   */
  39:Src/tim.c     **** 
  40:Src/tim.c     **** /* Includes ------------------------------------------------------------------*/
  41:Src/tim.c     **** #include "tim.h"
  42:Src/tim.c     **** 
  43:Src/tim.c     **** #include "gpio.h"
  44:Src/tim.c     **** 
  45:Src/tim.c     **** /* USER CODE BEGIN 0 */
  46:Src/tim.c     **** 
  47:Src/tim.c     **** /* USER CODE END 0 */
  48:Src/tim.c     **** 
  49:Src/tim.c     **** TIM_HandleTypeDef htim1;
  50:Src/tim.c     **** TIM_HandleTypeDef htim2;
  51:Src/tim.c     **** TIM_HandleTypeDef htim3;
  52:Src/tim.c     **** TIM_HandleTypeDef htim5;
  53:Src/tim.c     **** TIM_HandleTypeDef htim6;
  54:Src/tim.c     **** TIM_HandleTypeDef htim7;
  55:Src/tim.c     **** TIM_HandleTypeDef htim10;
  56:Src/tim.c     **** TIM_HandleTypeDef htim13;
  57:Src/tim.c     **** 
  58:Src/tim.c     **** /* TIM1 init function */
  59:Src/tim.c     **** void MX_TIM1_Init(void)
  60:Src/tim.c     **** {
  61:Src/tim.c     ****   TIM_MasterConfigTypeDef sMasterConfig;
  62:Src/tim.c     ****   TIM_OC_InitTypeDef sConfigOC;
  63:Src/tim.c     ****   TIM_BreakDeadTimeConfigTypeDef sBreakDeadTimeConfig;
  64:Src/tim.c     **** 
  65:Src/tim.c     ****   htim1.Instance = TIM1;
  66:Src/tim.c     ****   htim1.Init.Prescaler = 9;
  67:Src/tim.c     ****   htim1.Init.CounterMode = TIM_COUNTERMODE_UP;
  68:Src/tim.c     ****   htim1.Init.Period = 1000;
  69:Src/tim.c     ****   htim1.Init.ClockDivision = TIM_CLOCKDIVISION_DIV1;
  70:Src/tim.c     ****   htim1.Init.RepetitionCounter = 0;
  71:Src/tim.c     ****   if (HAL_TIM_PWM_Init(&htim1) != HAL_OK)
  72:Src/tim.c     ****   {
  73:Src/tim.c     ****     _Error_Handler(__FILE__, __LINE__);
  74:Src/tim.c     ****   }
  75:Src/tim.c     **** 
  76:Src/tim.c     ****   sMasterConfig.MasterOutputTrigger = TIM_TRGO_RESET;
  77:Src/tim.c     ****   sMasterConfig.MasterSlaveMode = TIM_MASTERSLAVEMODE_DISABLE;
  78:Src/tim.c     ****   if (HAL_TIMEx_MasterConfigSynchronization(&htim1, &sMasterConfig) != HAL_OK)
  79:Src/tim.c     ****   {
  80:Src/tim.c     ****     _Error_Handler(__FILE__, __LINE__);
  81:Src/tim.c     ****   }
  82:Src/tim.c     **** 
  83:Src/tim.c     ****   sConfigOC.OCMode = TIM_OCMODE_PWM1;
  84:Src/tim.c     ****   sConfigOC.Pulse = 0;
  85:Src/tim.c     ****   sConfigOC.OCPolarity = TIM_OCPOLARITY_HIGH;
  86:Src/tim.c     ****   sConfigOC.OCNPolarity = TIM_OCNPOLARITY_HIGH;
ARM GAS  C:\Users\shun2\AppData\Local\Temp\ccjczDvu.s 			page 3


  87:Src/tim.c     ****   sConfigOC.OCFastMode = TIM_OCFAST_DISABLE;
  88:Src/tim.c     ****   sConfigOC.OCIdleState = TIM_OCIDLESTATE_RESET;
  89:Src/tim.c     ****   sConfigOC.OCNIdleState = TIM_OCNIDLESTATE_RESET;
  90:Src/tim.c     ****   if (HAL_TIM_PWM_ConfigChannel(&htim1, &sConfigOC, TIM_CHANNEL_1) != HAL_OK)
  91:Src/tim.c     ****   {
  92:Src/tim.c     ****     _Error_Handler(__FILE__, __LINE__);
  93:Src/tim.c     ****   }
  94:Src/tim.c     **** 
  95:Src/tim.c     ****   if (HAL_TIM_PWM_ConfigChannel(&htim1, &sConfigOC, TIM_CHANNEL_2) != HAL_OK)
  96:Src/tim.c     ****   {
  97:Src/tim.c     ****     _Error_Handler(__FILE__, __LINE__);
  98:Src/tim.c     ****   }
  99:Src/tim.c     **** 
 100:Src/tim.c     ****   sBreakDeadTimeConfig.OffStateRunMode = TIM_OSSR_DISABLE;
 101:Src/tim.c     ****   sBreakDeadTimeConfig.OffStateIDLEMode = TIM_OSSI_DISABLE;
 102:Src/tim.c     ****   sBreakDeadTimeConfig.LockLevel = TIM_LOCKLEVEL_OFF;
 103:Src/tim.c     ****   sBreakDeadTimeConfig.DeadTime = 0;
 104:Src/tim.c     ****   sBreakDeadTimeConfig.BreakState = TIM_BREAK_DISABLE;
 105:Src/tim.c     ****   sBreakDeadTimeConfig.BreakPolarity = TIM_BREAKPOLARITY_HIGH;
 106:Src/tim.c     ****   sBreakDeadTimeConfig.AutomaticOutput = TIM_AUTOMATICOUTPUT_DISABLE;
 107:Src/tim.c     ****   if (HAL_TIMEx_ConfigBreakDeadTime(&htim1, &sBreakDeadTimeConfig) != HAL_OK)
 108:Src/tim.c     ****   {
 109:Src/tim.c     ****     _Error_Handler(__FILE__, __LINE__);
 110:Src/tim.c     ****   }
 111:Src/tim.c     **** 
 112:Src/tim.c     ****   HAL_TIM_MspPostInit(&htim1);
 113:Src/tim.c     **** 
 114:Src/tim.c     **** }
 115:Src/tim.c     **** /* TIM2 init function */
 116:Src/tim.c     **** void MX_TIM2_Init(void)
 117:Src/tim.c     **** {
  30              		.loc 1 117 0
  31              		.cfi_startproc
  32              		@ args = 0, pretend = 0, frame = 24
  33              		@ frame_needed = 0, uses_anonymous_args = 0
  34 0000 00B5     		push	{lr}
  35              	.LCFI0:
  36              		.cfi_def_cfa_offset 4
  37              		.cfi_offset 14, -4
  38 0002 87B0     		sub	sp, sp, #28
  39              	.LCFI1:
  40              		.cfi_def_cfa_offset 32
 118:Src/tim.c     ****   TIM_ClockConfigTypeDef sClockSourceConfig;
 119:Src/tim.c     ****   TIM_MasterConfigTypeDef sMasterConfig;
 120:Src/tim.c     **** 
 121:Src/tim.c     ****   htim2.Instance = TIM2;
  41              		.loc 1 121 0
  42 0004 1648     		ldr	r0, .L6
  43 0006 4FF08043 		mov	r3, #1073741824
  44 000a 0360     		str	r3, [r0]
 122:Src/tim.c     ****   htim2.Init.Prescaler = 1;
  45              		.loc 1 122 0
  46 000c 0123     		movs	r3, #1
  47 000e 4360     		str	r3, [r0, #4]
 123:Src/tim.c     ****   htim2.Init.CounterMode = TIM_COUNTERMODE_UP;
  48              		.loc 1 123 0
  49 0010 0023     		movs	r3, #0
ARM GAS  C:\Users\shun2\AppData\Local\Temp\ccjczDvu.s 			page 4


  50 0012 8360     		str	r3, [r0, #8]
 124:Src/tim.c     ****   htim2.Init.Period = 75000;
  51              		.loc 1 124 0
  52 0014 134A     		ldr	r2, .L6+4
  53 0016 C260     		str	r2, [r0, #12]
 125:Src/tim.c     ****   htim2.Init.ClockDivision = TIM_CLOCKDIVISION_DIV1;
  54              		.loc 1 125 0
  55 0018 0361     		str	r3, [r0, #16]
 126:Src/tim.c     ****   if (HAL_TIM_Base_Init(&htim2) != HAL_OK)
  56              		.loc 1 126 0
  57 001a FFF7FEFF 		bl	HAL_TIM_Base_Init
  58              	.LVL0:
  59 001e 18B1     		cbz	r0, .L2
 127:Src/tim.c     ****   {
 128:Src/tim.c     ****     _Error_Handler(__FILE__, __LINE__);
  60              		.loc 1 128 0
  61 0020 8021     		movs	r1, #128
  62 0022 1148     		ldr	r0, .L6+8
  63 0024 FFF7FEFF 		bl	_Error_Handler
  64              	.LVL1:
  65              	.L2:
 129:Src/tim.c     ****   }
 130:Src/tim.c     **** 
 131:Src/tim.c     ****   sClockSourceConfig.ClockSource = TIM_CLOCKSOURCE_INTERNAL;
  66              		.loc 1 131 0
  67 0028 06A9     		add	r1, sp, #24
  68 002a 4FF48053 		mov	r3, #4096
  69 002e 41F8103D 		str	r3, [r1, #-16]!
 132:Src/tim.c     ****   if (HAL_TIM_ConfigClockSource(&htim2, &sClockSourceConfig) != HAL_OK)
  70              		.loc 1 132 0
  71 0032 0B48     		ldr	r0, .L6
  72 0034 FFF7FEFF 		bl	HAL_TIM_ConfigClockSource
  73              	.LVL2:
  74 0038 18B1     		cbz	r0, .L3
 133:Src/tim.c     ****   {
 134:Src/tim.c     ****     _Error_Handler(__FILE__, __LINE__);
  75              		.loc 1 134 0
  76 003a 8621     		movs	r1, #134
  77 003c 0A48     		ldr	r0, .L6+8
  78 003e FFF7FEFF 		bl	_Error_Handler
  79              	.LVL3:
  80              	.L3:
 135:Src/tim.c     ****   }
 136:Src/tim.c     **** 
 137:Src/tim.c     ****   sMasterConfig.MasterOutputTrigger = TIM_TRGO_RESET;
  81              		.loc 1 137 0
  82 0042 0023     		movs	r3, #0
  83 0044 0093     		str	r3, [sp]
 138:Src/tim.c     ****   sMasterConfig.MasterSlaveMode = TIM_MASTERSLAVEMODE_DISABLE;
  84              		.loc 1 138 0
  85 0046 0193     		str	r3, [sp, #4]
 139:Src/tim.c     ****   if (HAL_TIMEx_MasterConfigSynchronization(&htim2, &sMasterConfig) != HAL_OK)
  86              		.loc 1 139 0
  87 0048 6946     		mov	r1, sp
  88 004a 0548     		ldr	r0, .L6
  89 004c FFF7FEFF 		bl	HAL_TIMEx_MasterConfigSynchronization
  90              	.LVL4:
ARM GAS  C:\Users\shun2\AppData\Local\Temp\ccjczDvu.s 			page 5


  91 0050 18B1     		cbz	r0, .L1
 140:Src/tim.c     ****   {
 141:Src/tim.c     ****     _Error_Handler(__FILE__, __LINE__);
  92              		.loc 1 141 0
  93 0052 8D21     		movs	r1, #141
  94 0054 0448     		ldr	r0, .L6+8
  95 0056 FFF7FEFF 		bl	_Error_Handler
  96              	.LVL5:
  97              	.L1:
 142:Src/tim.c     ****   }
 143:Src/tim.c     **** 
 144:Src/tim.c     **** }
  98              		.loc 1 144 0
  99 005a 07B0     		add	sp, sp, #28
 100              	.LCFI2:
 101              		.cfi_def_cfa_offset 4
 102              		@ sp needed
 103 005c 5DF804FB 		ldr	pc, [sp], #4
 104              	.L7:
 105              		.align	2
 106              	.L6:
 107 0060 00000000 		.word	htim2
 108 0064 F8240100 		.word	75000
 109 0068 00000000 		.word	.LC0
 110              		.cfi_endproc
 111              	.LFE125:
 113              		.section	.text.MX_TIM3_Init,"ax",%progbits
 114              		.align	2
 115              		.global	MX_TIM3_Init
 116              		.thumb
 117              		.thumb_func
 119              	MX_TIM3_Init:
 120              	.LFB126:
 145:Src/tim.c     **** /* TIM3 init function */
 146:Src/tim.c     **** void MX_TIM3_Init(void)
 147:Src/tim.c     **** {
 121              		.loc 1 147 0
 122              		.cfi_startproc
 123              		@ args = 0, pretend = 0, frame = 48
 124              		@ frame_needed = 0, uses_anonymous_args = 0
 125 0000 00B5     		push	{lr}
 126              	.LCFI3:
 127              		.cfi_def_cfa_offset 4
 128              		.cfi_offset 14, -4
 129 0002 8DB0     		sub	sp, sp, #52
 130              	.LCFI4:
 131              		.cfi_def_cfa_offset 56
 148:Src/tim.c     ****   TIM_Encoder_InitTypeDef sConfig;
 149:Src/tim.c     ****   TIM_MasterConfigTypeDef sMasterConfig;
 150:Src/tim.c     **** 
 151:Src/tim.c     ****   htim3.Instance = TIM3;
 132              		.loc 1 151 0
 133 0004 1548     		ldr	r0, .L12
 134 0006 164B     		ldr	r3, .L12+4
 135 0008 0360     		str	r3, [r0]
 152:Src/tim.c     ****   htim3.Init.Prescaler = 1;
 136              		.loc 1 152 0
ARM GAS  C:\Users\shun2\AppData\Local\Temp\ccjczDvu.s 			page 6


 137 000a 0122     		movs	r2, #1
 138 000c 4260     		str	r2, [r0, #4]
 153:Src/tim.c     ****   htim3.Init.CounterMode = TIM_COUNTERMODE_UP;
 139              		.loc 1 153 0
 140 000e 0023     		movs	r3, #0
 141 0010 8360     		str	r3, [r0, #8]
 154:Src/tim.c     ****   htim3.Init.Period = 65535;
 142              		.loc 1 154 0
 143 0012 4FF6FF71 		movw	r1, #65535
 144 0016 C160     		str	r1, [r0, #12]
 155:Src/tim.c     ****   htim3.Init.ClockDivision = TIM_CLOCKDIVISION_DIV1;
 145              		.loc 1 155 0
 146 0018 0361     		str	r3, [r0, #16]
 156:Src/tim.c     ****   sConfig.EncoderMode = TIM_ENCODERMODE_TI1;
 147              		.loc 1 156 0
 148 001a 0392     		str	r2, [sp, #12]
 157:Src/tim.c     ****   sConfig.IC1Polarity = TIM_ICPOLARITY_RISING;
 149              		.loc 1 157 0
 150 001c 0493     		str	r3, [sp, #16]
 158:Src/tim.c     ****   sConfig.IC1Selection = TIM_ICSELECTION_DIRECTTI;
 151              		.loc 1 158 0
 152 001e 0592     		str	r2, [sp, #20]
 159:Src/tim.c     ****   sConfig.IC1Prescaler = TIM_ICPSC_DIV1;
 153              		.loc 1 159 0
 154 0020 0693     		str	r3, [sp, #24]
 160:Src/tim.c     ****   sConfig.IC1Filter = 0;
 155              		.loc 1 160 0
 156 0022 0793     		str	r3, [sp, #28]
 161:Src/tim.c     ****   sConfig.IC2Polarity = TIM_ICPOLARITY_RISING;
 157              		.loc 1 161 0
 158 0024 0893     		str	r3, [sp, #32]
 162:Src/tim.c     ****   sConfig.IC2Selection = TIM_ICSELECTION_DIRECTTI;
 159              		.loc 1 162 0
 160 0026 0992     		str	r2, [sp, #36]
 163:Src/tim.c     ****   sConfig.IC2Prescaler = TIM_ICPSC_DIV1;
 161              		.loc 1 163 0
 162 0028 0A93     		str	r3, [sp, #40]
 164:Src/tim.c     ****   sConfig.IC2Filter = 0;
 163              		.loc 1 164 0
 164 002a 0B93     		str	r3, [sp, #44]
 165:Src/tim.c     ****   if (HAL_TIM_Encoder_Init(&htim3, &sConfig) != HAL_OK)
 165              		.loc 1 165 0
 166 002c 03A9     		add	r1, sp, #12
 167 002e FFF7FEFF 		bl	HAL_TIM_Encoder_Init
 168              	.LVL6:
 169 0032 18B1     		cbz	r0, .L9
 166:Src/tim.c     ****   {
 167:Src/tim.c     ****     _Error_Handler(__FILE__, __LINE__);
 170              		.loc 1 167 0
 171 0034 A721     		movs	r1, #167
 172 0036 0B48     		ldr	r0, .L12+8
 173 0038 FFF7FEFF 		bl	_Error_Handler
 174              	.LVL7:
 175              	.L9:
 168:Src/tim.c     ****   }
 169:Src/tim.c     **** 
 170:Src/tim.c     ****   sMasterConfig.MasterOutputTrigger = TIM_TRGO_RESET;
ARM GAS  C:\Users\shun2\AppData\Local\Temp\ccjczDvu.s 			page 7


 176              		.loc 1 170 0
 177 003c 0023     		movs	r3, #0
 178 003e 0193     		str	r3, [sp, #4]
 171:Src/tim.c     ****   sMasterConfig.MasterSlaveMode = TIM_MASTERSLAVEMODE_DISABLE;
 179              		.loc 1 171 0
 180 0040 0293     		str	r3, [sp, #8]
 172:Src/tim.c     ****   if (HAL_TIMEx_MasterConfigSynchronization(&htim3, &sMasterConfig) != HAL_OK)
 181              		.loc 1 172 0
 182 0042 01A9     		add	r1, sp, #4
 183 0044 0548     		ldr	r0, .L12
 184 0046 FFF7FEFF 		bl	HAL_TIMEx_MasterConfigSynchronization
 185              	.LVL8:
 186 004a 18B1     		cbz	r0, .L8
 173:Src/tim.c     ****   {
 174:Src/tim.c     ****     _Error_Handler(__FILE__, __LINE__);
 187              		.loc 1 174 0
 188 004c AE21     		movs	r1, #174
 189 004e 0548     		ldr	r0, .L12+8
 190 0050 FFF7FEFF 		bl	_Error_Handler
 191              	.LVL9:
 192              	.L8:
 175:Src/tim.c     ****   }
 176:Src/tim.c     **** 
 177:Src/tim.c     **** }
 193              		.loc 1 177 0
 194 0054 0DB0     		add	sp, sp, #52
 195              	.LCFI5:
 196              		.cfi_def_cfa_offset 4
 197              		@ sp needed
 198 0056 5DF804FB 		ldr	pc, [sp], #4
 199              	.L13:
 200 005a 00BF     		.align	2
 201              	.L12:
 202 005c 00000000 		.word	htim3
 203 0060 00040040 		.word	1073742848
 204 0064 00000000 		.word	.LC0
 205              		.cfi_endproc
 206              	.LFE126:
 208              		.section	.text.MX_TIM5_Init,"ax",%progbits
 209              		.align	2
 210              		.global	MX_TIM5_Init
 211              		.thumb
 212              		.thumb_func
 214              	MX_TIM5_Init:
 215              	.LFB127:
 178:Src/tim.c     **** /* TIM5 init function */
 179:Src/tim.c     **** void MX_TIM5_Init(void)
 180:Src/tim.c     **** {
 216              		.loc 1 180 0
 217              		.cfi_startproc
 218              		@ args = 0, pretend = 0, frame = 48
 219              		@ frame_needed = 0, uses_anonymous_args = 0
 220 0000 00B5     		push	{lr}
 221              	.LCFI6:
 222              		.cfi_def_cfa_offset 4
 223              		.cfi_offset 14, -4
 224 0002 8DB0     		sub	sp, sp, #52
ARM GAS  C:\Users\shun2\AppData\Local\Temp\ccjczDvu.s 			page 8


 225              	.LCFI7:
 226              		.cfi_def_cfa_offset 56
 181:Src/tim.c     ****   TIM_Encoder_InitTypeDef sConfig;
 182:Src/tim.c     ****   TIM_MasterConfigTypeDef sMasterConfig;
 183:Src/tim.c     **** 
 184:Src/tim.c     ****   htim5.Instance = TIM5;
 227              		.loc 1 184 0
 228 0004 1548     		ldr	r0, .L18
 229 0006 164B     		ldr	r3, .L18+4
 230 0008 0360     		str	r3, [r0]
 185:Src/tim.c     ****   htim5.Init.Prescaler = 1;
 231              		.loc 1 185 0
 232 000a 0122     		movs	r2, #1
 233 000c 4260     		str	r2, [r0, #4]
 186:Src/tim.c     ****   htim5.Init.CounterMode = TIM_COUNTERMODE_UP;
 234              		.loc 1 186 0
 235 000e 0023     		movs	r3, #0
 236 0010 8360     		str	r3, [r0, #8]
 187:Src/tim.c     ****   htim5.Init.Period = 65535;
 237              		.loc 1 187 0
 238 0012 4FF6FF71 		movw	r1, #65535
 239 0016 C160     		str	r1, [r0, #12]
 188:Src/tim.c     ****   htim5.Init.ClockDivision = TIM_CLOCKDIVISION_DIV1;
 240              		.loc 1 188 0
 241 0018 0361     		str	r3, [r0, #16]
 189:Src/tim.c     ****   sConfig.EncoderMode = TIM_ENCODERMODE_TI1;
 242              		.loc 1 189 0
 243 001a 0392     		str	r2, [sp, #12]
 190:Src/tim.c     ****   sConfig.IC1Polarity = TIM_ICPOLARITY_RISING;
 244              		.loc 1 190 0
 245 001c 0493     		str	r3, [sp, #16]
 191:Src/tim.c     ****   sConfig.IC1Selection = TIM_ICSELECTION_DIRECTTI;
 246              		.loc 1 191 0
 247 001e 0592     		str	r2, [sp, #20]
 192:Src/tim.c     ****   sConfig.IC1Prescaler = TIM_ICPSC_DIV1;
 248              		.loc 1 192 0
 249 0020 0693     		str	r3, [sp, #24]
 193:Src/tim.c     ****   sConfig.IC1Filter = 0;
 250              		.loc 1 193 0
 251 0022 0793     		str	r3, [sp, #28]
 194:Src/tim.c     ****   sConfig.IC2Polarity = TIM_ICPOLARITY_RISING;
 252              		.loc 1 194 0
 253 0024 0893     		str	r3, [sp, #32]
 195:Src/tim.c     ****   sConfig.IC2Selection = TIM_ICSELECTION_DIRECTTI;
 254              		.loc 1 195 0
 255 0026 0992     		str	r2, [sp, #36]
 196:Src/tim.c     ****   sConfig.IC2Prescaler = TIM_ICPSC_DIV1;
 256              		.loc 1 196 0
 257 0028 0A93     		str	r3, [sp, #40]
 197:Src/tim.c     ****   sConfig.IC2Filter = 0;
 258              		.loc 1 197 0
 259 002a 0B93     		str	r3, [sp, #44]
 198:Src/tim.c     ****   if (HAL_TIM_Encoder_Init(&htim5, &sConfig) != HAL_OK)
 260              		.loc 1 198 0
 261 002c 03A9     		add	r1, sp, #12
 262 002e FFF7FEFF 		bl	HAL_TIM_Encoder_Init
 263              	.LVL10:
ARM GAS  C:\Users\shun2\AppData\Local\Temp\ccjczDvu.s 			page 9


 264 0032 18B1     		cbz	r0, .L15
 199:Src/tim.c     ****   {
 200:Src/tim.c     ****     _Error_Handler(__FILE__, __LINE__);
 265              		.loc 1 200 0
 266 0034 C821     		movs	r1, #200
 267 0036 0B48     		ldr	r0, .L18+8
 268 0038 FFF7FEFF 		bl	_Error_Handler
 269              	.LVL11:
 270              	.L15:
 201:Src/tim.c     ****   }
 202:Src/tim.c     **** 
 203:Src/tim.c     ****   sMasterConfig.MasterOutputTrigger = TIM_TRGO_RESET;
 271              		.loc 1 203 0
 272 003c 0023     		movs	r3, #0
 273 003e 0193     		str	r3, [sp, #4]
 204:Src/tim.c     ****   sMasterConfig.MasterSlaveMode = TIM_MASTERSLAVEMODE_DISABLE;
 274              		.loc 1 204 0
 275 0040 0293     		str	r3, [sp, #8]
 205:Src/tim.c     ****   if (HAL_TIMEx_MasterConfigSynchronization(&htim5, &sMasterConfig) != HAL_OK)
 276              		.loc 1 205 0
 277 0042 01A9     		add	r1, sp, #4
 278 0044 0548     		ldr	r0, .L18
 279 0046 FFF7FEFF 		bl	HAL_TIMEx_MasterConfigSynchronization
 280              	.LVL12:
 281 004a 18B1     		cbz	r0, .L14
 206:Src/tim.c     ****   {
 207:Src/tim.c     ****     _Error_Handler(__FILE__, __LINE__);
 282              		.loc 1 207 0
 283 004c CF21     		movs	r1, #207
 284 004e 0548     		ldr	r0, .L18+8
 285 0050 FFF7FEFF 		bl	_Error_Handler
 286              	.LVL13:
 287              	.L14:
 208:Src/tim.c     ****   }
 209:Src/tim.c     **** 
 210:Src/tim.c     **** }
 288              		.loc 1 210 0
 289 0054 0DB0     		add	sp, sp, #52
 290              	.LCFI8:
 291              		.cfi_def_cfa_offset 4
 292              		@ sp needed
 293 0056 5DF804FB 		ldr	pc, [sp], #4
 294              	.L19:
 295 005a 00BF     		.align	2
 296              	.L18:
 297 005c 00000000 		.word	htim5
 298 0060 000C0040 		.word	1073744896
 299 0064 00000000 		.word	.LC0
 300              		.cfi_endproc
 301              	.LFE127:
 303              		.section	.text.MX_TIM6_Init,"ax",%progbits
 304              		.align	2
 305              		.global	MX_TIM6_Init
 306              		.thumb
 307              		.thumb_func
 309              	MX_TIM6_Init:
 310              	.LFB128:
ARM GAS  C:\Users\shun2\AppData\Local\Temp\ccjczDvu.s 			page 10


 211:Src/tim.c     **** /* TIM6 init function */
 212:Src/tim.c     **** void MX_TIM6_Init(void)
 213:Src/tim.c     **** {
 311              		.loc 1 213 0
 312              		.cfi_startproc
 313              		@ args = 0, pretend = 0, frame = 8
 314              		@ frame_needed = 0, uses_anonymous_args = 0
 315 0000 00B5     		push	{lr}
 316              	.LCFI9:
 317              		.cfi_def_cfa_offset 4
 318              		.cfi_offset 14, -4
 319 0002 83B0     		sub	sp, sp, #12
 320              	.LCFI10:
 321              		.cfi_def_cfa_offset 16
 214:Src/tim.c     ****   TIM_MasterConfigTypeDef sMasterConfig;
 215:Src/tim.c     **** 
 216:Src/tim.c     ****   htim6.Instance = TIM6;
 322              		.loc 1 216 0
 323 0004 0F48     		ldr	r0, .L24
 324 0006 104B     		ldr	r3, .L24+4
 325 0008 0360     		str	r3, [r0]
 217:Src/tim.c     ****   htim6.Init.Prescaler = 30;
 326              		.loc 1 217 0
 327 000a 1E23     		movs	r3, #30
 328 000c 4360     		str	r3, [r0, #4]
 218:Src/tim.c     ****   htim6.Init.CounterMode = TIM_COUNTERMODE_UP;
 329              		.loc 1 218 0
 330 000e 0023     		movs	r3, #0
 331 0010 8360     		str	r3, [r0, #8]
 219:Src/tim.c     ****   htim6.Init.Period = 10000;
 332              		.loc 1 219 0
 333 0012 42F21073 		movw	r3, #10000
 334 0016 C360     		str	r3, [r0, #12]
 220:Src/tim.c     ****   if (HAL_TIM_Base_Init(&htim6) != HAL_OK)
 335              		.loc 1 220 0
 336 0018 FFF7FEFF 		bl	HAL_TIM_Base_Init
 337              	.LVL14:
 338 001c 18B1     		cbz	r0, .L21
 221:Src/tim.c     ****   {
 222:Src/tim.c     ****     _Error_Handler(__FILE__, __LINE__);
 339              		.loc 1 222 0
 340 001e DE21     		movs	r1, #222
 341 0020 0A48     		ldr	r0, .L24+8
 342 0022 FFF7FEFF 		bl	_Error_Handler
 343              	.LVL15:
 344              	.L21:
 223:Src/tim.c     ****   }
 224:Src/tim.c     **** 
 225:Src/tim.c     ****   sMasterConfig.MasterOutputTrigger = TIM_TRGO_RESET;
 345              		.loc 1 225 0
 346 0026 0023     		movs	r3, #0
 347 0028 0093     		str	r3, [sp]
 226:Src/tim.c     ****   sMasterConfig.MasterSlaveMode = TIM_MASTERSLAVEMODE_DISABLE;
 348              		.loc 1 226 0
 349 002a 0193     		str	r3, [sp, #4]
 227:Src/tim.c     ****   if (HAL_TIMEx_MasterConfigSynchronization(&htim6, &sMasterConfig) != HAL_OK)
 350              		.loc 1 227 0
ARM GAS  C:\Users\shun2\AppData\Local\Temp\ccjczDvu.s 			page 11


 351 002c 6946     		mov	r1, sp
 352 002e 0548     		ldr	r0, .L24
 353 0030 FFF7FEFF 		bl	HAL_TIMEx_MasterConfigSynchronization
 354              	.LVL16:
 355 0034 18B1     		cbz	r0, .L20
 228:Src/tim.c     ****   {
 229:Src/tim.c     ****     _Error_Handler(__FILE__, __LINE__);
 356              		.loc 1 229 0
 357 0036 E521     		movs	r1, #229
 358 0038 0448     		ldr	r0, .L24+8
 359 003a FFF7FEFF 		bl	_Error_Handler
 360              	.LVL17:
 361              	.L20:
 230:Src/tim.c     ****   }
 231:Src/tim.c     **** 
 232:Src/tim.c     **** }
 362              		.loc 1 232 0
 363 003e 03B0     		add	sp, sp, #12
 364              	.LCFI11:
 365              		.cfi_def_cfa_offset 4
 366              		@ sp needed
 367 0040 5DF804FB 		ldr	pc, [sp], #4
 368              	.L25:
 369              		.align	2
 370              	.L24:
 371 0044 00000000 		.word	htim6
 372 0048 00100040 		.word	1073745920
 373 004c 00000000 		.word	.LC0
 374              		.cfi_endproc
 375              	.LFE128:
 377              		.section	.text.MX_TIM7_Init,"ax",%progbits
 378              		.align	2
 379              		.global	MX_TIM7_Init
 380              		.thumb
 381              		.thumb_func
 383              	MX_TIM7_Init:
 384              	.LFB129:
 233:Src/tim.c     **** /* TIM7 init function */
 234:Src/tim.c     **** void MX_TIM7_Init(void)
 235:Src/tim.c     **** {
 385              		.loc 1 235 0
 386              		.cfi_startproc
 387              		@ args = 0, pretend = 0, frame = 8
 388              		@ frame_needed = 0, uses_anonymous_args = 0
 389 0000 00B5     		push	{lr}
 390              	.LCFI12:
 391              		.cfi_def_cfa_offset 4
 392              		.cfi_offset 14, -4
 393 0002 83B0     		sub	sp, sp, #12
 394              	.LCFI13:
 395              		.cfi_def_cfa_offset 16
 236:Src/tim.c     ****   TIM_MasterConfigTypeDef sMasterConfig;
 237:Src/tim.c     **** 
 238:Src/tim.c     ****   htim7.Instance = TIM7;
 396              		.loc 1 238 0
 397 0004 0F48     		ldr	r0, .L30
 398 0006 104B     		ldr	r3, .L30+4
ARM GAS  C:\Users\shun2\AppData\Local\Temp\ccjczDvu.s 			page 12


 399 0008 0360     		str	r3, [r0]
 239:Src/tim.c     ****   htim7.Init.Prescaler = 44;
 400              		.loc 1 239 0
 401 000a 2C23     		movs	r3, #44
 402 000c 4360     		str	r3, [r0, #4]
 240:Src/tim.c     ****   htim7.Init.CounterMode = TIM_COUNTERMODE_UP;
 403              		.loc 1 240 0
 404 000e 0023     		movs	r3, #0
 405 0010 8360     		str	r3, [r0, #8]
 241:Src/tim.c     ****   htim7.Init.Period = 65535;
 406              		.loc 1 241 0
 407 0012 4FF6FF73 		movw	r3, #65535
 408 0016 C360     		str	r3, [r0, #12]
 242:Src/tim.c     ****   if (HAL_TIM_Base_Init(&htim7) != HAL_OK)
 409              		.loc 1 242 0
 410 0018 FFF7FEFF 		bl	HAL_TIM_Base_Init
 411              	.LVL18:
 412 001c 18B1     		cbz	r0, .L27
 243:Src/tim.c     ****   {
 244:Src/tim.c     ****     _Error_Handler(__FILE__, __LINE__);
 413              		.loc 1 244 0
 414 001e F421     		movs	r1, #244
 415 0020 0A48     		ldr	r0, .L30+8
 416 0022 FFF7FEFF 		bl	_Error_Handler
 417              	.LVL19:
 418              	.L27:
 245:Src/tim.c     ****   }
 246:Src/tim.c     **** 
 247:Src/tim.c     ****   sMasterConfig.MasterOutputTrigger = TIM_TRGO_RESET;
 419              		.loc 1 247 0
 420 0026 0023     		movs	r3, #0
 421 0028 0093     		str	r3, [sp]
 248:Src/tim.c     ****   sMasterConfig.MasterSlaveMode = TIM_MASTERSLAVEMODE_DISABLE;
 422              		.loc 1 248 0
 423 002a 0193     		str	r3, [sp, #4]
 249:Src/tim.c     ****   if (HAL_TIMEx_MasterConfigSynchronization(&htim7, &sMasterConfig) != HAL_OK)
 424              		.loc 1 249 0
 425 002c 6946     		mov	r1, sp
 426 002e 0548     		ldr	r0, .L30
 427 0030 FFF7FEFF 		bl	HAL_TIMEx_MasterConfigSynchronization
 428              	.LVL20:
 429 0034 18B1     		cbz	r0, .L26
 250:Src/tim.c     ****   {
 251:Src/tim.c     ****     _Error_Handler(__FILE__, __LINE__);
 430              		.loc 1 251 0
 431 0036 FB21     		movs	r1, #251
 432 0038 0448     		ldr	r0, .L30+8
 433 003a FFF7FEFF 		bl	_Error_Handler
 434              	.LVL21:
 435              	.L26:
 252:Src/tim.c     ****   }
 253:Src/tim.c     **** 
 254:Src/tim.c     **** }
 436              		.loc 1 254 0
 437 003e 03B0     		add	sp, sp, #12
 438              	.LCFI14:
 439              		.cfi_def_cfa_offset 4
ARM GAS  C:\Users\shun2\AppData\Local\Temp\ccjczDvu.s 			page 13


 440              		@ sp needed
 441 0040 5DF804FB 		ldr	pc, [sp], #4
 442              	.L31:
 443              		.align	2
 444              	.L30:
 445 0044 00000000 		.word	htim7
 446 0048 00140040 		.word	1073746944
 447 004c 00000000 		.word	.LC0
 448              		.cfi_endproc
 449              	.LFE129:
 451              		.section	.text.MX_TIM10_Init,"ax",%progbits
 452              		.align	2
 453              		.global	MX_TIM10_Init
 454              		.thumb
 455              		.thumb_func
 457              	MX_TIM10_Init:
 458              	.LFB130:
 255:Src/tim.c     **** /* TIM10 init function */
 256:Src/tim.c     **** void MX_TIM10_Init(void)
 257:Src/tim.c     **** {
 459              		.loc 1 257 0
 460              		.cfi_startproc
 461              		@ args = 0, pretend = 0, frame = 0
 462              		@ frame_needed = 0, uses_anonymous_args = 0
 463 0000 08B5     		push	{r3, lr}
 464              	.LCFI15:
 465              		.cfi_def_cfa_offset 8
 466              		.cfi_offset 3, -8
 467              		.cfi_offset 14, -4
 258:Src/tim.c     **** 
 259:Src/tim.c     ****   htim10.Instance = TIM10;
 468              		.loc 1 259 0
 469 0002 0A48     		ldr	r0, .L35
 470 0004 0A4B     		ldr	r3, .L35+4
 471 0006 0360     		str	r3, [r0]
 260:Src/tim.c     ****   htim10.Init.Prescaler = 179;
 472              		.loc 1 260 0
 473 0008 B323     		movs	r3, #179
 474 000a 4360     		str	r3, [r0, #4]
 261:Src/tim.c     ****   htim10.Init.CounterMode = TIM_COUNTERMODE_UP;
 475              		.loc 1 261 0
 476 000c 0023     		movs	r3, #0
 477 000e 8360     		str	r3, [r0, #8]
 262:Src/tim.c     ****   htim10.Init.Period = 65535;
 478              		.loc 1 262 0
 479 0010 4FF6FF72 		movw	r2, #65535
 480 0014 C260     		str	r2, [r0, #12]
 263:Src/tim.c     ****   htim10.Init.ClockDivision = TIM_CLOCKDIVISION_DIV1;
 481              		.loc 1 263 0
 482 0016 0361     		str	r3, [r0, #16]
 264:Src/tim.c     ****   if (HAL_TIM_Base_Init(&htim10) != HAL_OK)
 483              		.loc 1 264 0
 484 0018 FFF7FEFF 		bl	HAL_TIM_Base_Init
 485              	.LVL22:
 486 001c 20B1     		cbz	r0, .L32
 265:Src/tim.c     ****   {
 266:Src/tim.c     ****     _Error_Handler(__FILE__, __LINE__);
ARM GAS  C:\Users\shun2\AppData\Local\Temp\ccjczDvu.s 			page 14


 487              		.loc 1 266 0
 488 001e 4FF48571 		mov	r1, #266
 489 0022 0448     		ldr	r0, .L35+8
 490 0024 FFF7FEFF 		bl	_Error_Handler
 491              	.LVL23:
 492              	.L32:
 493 0028 08BD     		pop	{r3, pc}
 494              	.L36:
 495 002a 00BF     		.align	2
 496              	.L35:
 497 002c 00000000 		.word	htim10
 498 0030 00440140 		.word	1073824768
 499 0034 00000000 		.word	.LC0
 500              		.cfi_endproc
 501              	.LFE130:
 503              		.section	.text.MX_TIM13_Init,"ax",%progbits
 504              		.align	2
 505              		.global	MX_TIM13_Init
 506              		.thumb
 507              		.thumb_func
 509              	MX_TIM13_Init:
 510              	.LFB131:
 267:Src/tim.c     ****   }
 268:Src/tim.c     **** 
 269:Src/tim.c     **** }
 270:Src/tim.c     **** /* TIM13 init function */
 271:Src/tim.c     **** void MX_TIM13_Init(void)
 272:Src/tim.c     **** {
 511              		.loc 1 272 0
 512              		.cfi_startproc
 513              		@ args = 0, pretend = 0, frame = 0
 514              		@ frame_needed = 0, uses_anonymous_args = 0
 515 0000 08B5     		push	{r3, lr}
 516              	.LCFI16:
 517              		.cfi_def_cfa_offset 8
 518              		.cfi_offset 3, -8
 519              		.cfi_offset 14, -4
 273:Src/tim.c     **** 
 274:Src/tim.c     ****   htim13.Instance = TIM13;
 520              		.loc 1 274 0
 521 0002 0A48     		ldr	r0, .L40
 522 0004 0A4B     		ldr	r3, .L40+4
 523 0006 0360     		str	r3, [r0]
 275:Src/tim.c     ****   htim13.Init.Prescaler = 5000;
 524              		.loc 1 275 0
 525 0008 41F28833 		movw	r3, #5000
 526 000c 4360     		str	r3, [r0, #4]
 276:Src/tim.c     ****   htim13.Init.CounterMode = TIM_COUNTERMODE_UP;
 527              		.loc 1 276 0
 528 000e 0023     		movs	r3, #0
 529 0010 8360     		str	r3, [r0, #8]
 277:Src/tim.c     ****   htim13.Init.Period = 500;
 530              		.loc 1 277 0
 531 0012 4FF4FA72 		mov	r2, #500
 532 0016 C260     		str	r2, [r0, #12]
 278:Src/tim.c     ****   htim13.Init.ClockDivision = TIM_CLOCKDIVISION_DIV1;
 533              		.loc 1 278 0
ARM GAS  C:\Users\shun2\AppData\Local\Temp\ccjczDvu.s 			page 15


 534 0018 0361     		str	r3, [r0, #16]
 279:Src/tim.c     ****   if (HAL_TIM_Base_Init(&htim13) != HAL_OK)
 535              		.loc 1 279 0
 536 001a FFF7FEFF 		bl	HAL_TIM_Base_Init
 537              	.LVL24:
 538 001e 20B1     		cbz	r0, .L37
 280:Src/tim.c     ****   {
 281:Src/tim.c     ****     _Error_Handler(__FILE__, __LINE__);
 539              		.loc 1 281 0
 540 0020 40F21911 		movw	r1, #281
 541 0024 0348     		ldr	r0, .L40+8
 542 0026 FFF7FEFF 		bl	_Error_Handler
 543              	.LVL25:
 544              	.L37:
 545 002a 08BD     		pop	{r3, pc}
 546              	.L41:
 547              		.align	2
 548              	.L40:
 549 002c 00000000 		.word	htim13
 550 0030 001C0040 		.word	1073748992
 551 0034 00000000 		.word	.LC0
 552              		.cfi_endproc
 553              	.LFE131:
 555              		.section	.text.HAL_TIM_PWM_MspInit,"ax",%progbits
 556              		.align	2
 557              		.global	HAL_TIM_PWM_MspInit
 558              		.thumb
 559              		.thumb_func
 561              	HAL_TIM_PWM_MspInit:
 562              	.LFB132:
 282:Src/tim.c     ****   }
 283:Src/tim.c     **** 
 284:Src/tim.c     **** }
 285:Src/tim.c     **** 
 286:Src/tim.c     **** void HAL_TIM_PWM_MspInit(TIM_HandleTypeDef* tim_pwmHandle)
 287:Src/tim.c     **** {
 563              		.loc 1 287 0
 564              		.cfi_startproc
 565              		@ args = 0, pretend = 0, frame = 8
 566              		@ frame_needed = 0, uses_anonymous_args = 0
 567              		@ link register save eliminated.
 568              	.LVL26:
 288:Src/tim.c     **** 
 289:Src/tim.c     ****   if(tim_pwmHandle->Instance==TIM1)
 569              		.loc 1 289 0
 570 0000 0268     		ldr	r2, [r0]
 571 0002 094B     		ldr	r3, .L47
 572 0004 9A42     		cmp	r2, r3
 573 0006 0DD1     		bne	.L46
 287:Src/tim.c     **** 
 574              		.loc 1 287 0
 575 0008 82B0     		sub	sp, sp, #8
 576              	.LCFI17:
 577              		.cfi_def_cfa_offset 8
 578              	.LBB2:
 290:Src/tim.c     ****   {
 291:Src/tim.c     ****   /* USER CODE BEGIN TIM1_MspInit 0 */
ARM GAS  C:\Users\shun2\AppData\Local\Temp\ccjczDvu.s 			page 16


 292:Src/tim.c     **** 
 293:Src/tim.c     ****   /* USER CODE END TIM1_MspInit 0 */
 294:Src/tim.c     ****     /* TIM1 clock enable */
 295:Src/tim.c     ****     __HAL_RCC_TIM1_CLK_ENABLE();
 579              		.loc 1 295 0
 580 000a 0023     		movs	r3, #0
 581 000c 0193     		str	r3, [sp, #4]
 582 000e 074B     		ldr	r3, .L47+4
 583 0010 5A6C     		ldr	r2, [r3, #68]
 584 0012 42F00102 		orr	r2, r2, #1
 585 0016 5A64     		str	r2, [r3, #68]
 586 0018 5B6C     		ldr	r3, [r3, #68]
 587 001a 03F00103 		and	r3, r3, #1
 588 001e 0193     		str	r3, [sp, #4]
 589 0020 019B     		ldr	r3, [sp, #4]
 590              	.LBE2:
 296:Src/tim.c     ****   /* USER CODE BEGIN TIM1_MspInit 1 */
 297:Src/tim.c     **** 
 298:Src/tim.c     ****   /* USER CODE END TIM1_MspInit 1 */
 299:Src/tim.c     ****   }
 300:Src/tim.c     **** }
 591              		.loc 1 300 0
 592 0022 02B0     		add	sp, sp, #8
 593              	.LCFI18:
 594              		.cfi_def_cfa_offset 0
 595              		@ sp needed
 596              	.L46:
 597 0024 7047     		bx	lr
 598              	.L48:
 599 0026 00BF     		.align	2
 600              	.L47:
 601 0028 00000140 		.word	1073807360
 602 002c 00380240 		.word	1073887232
 603              		.cfi_endproc
 604              	.LFE132:
 606              		.section	.text.HAL_TIM_Base_MspInit,"ax",%progbits
 607              		.align	2
 608              		.global	HAL_TIM_Base_MspInit
 609              		.thumb
 610              		.thumb_func
 612              	HAL_TIM_Base_MspInit:
 613              	.LFB133:
 301:Src/tim.c     **** 
 302:Src/tim.c     **** void HAL_TIM_Base_MspInit(TIM_HandleTypeDef* tim_baseHandle)
 303:Src/tim.c     **** {
 614              		.loc 1 303 0
 615              		.cfi_startproc
 616              		@ args = 0, pretend = 0, frame = 24
 617              		@ frame_needed = 0, uses_anonymous_args = 0
 618              	.LVL27:
 619 0000 00B5     		push	{lr}
 620              	.LCFI19:
 621              		.cfi_def_cfa_offset 4
 622              		.cfi_offset 14, -4
 623 0002 87B0     		sub	sp, sp, #28
 624              	.LCFI20:
 625              		.cfi_def_cfa_offset 32
ARM GAS  C:\Users\shun2\AppData\Local\Temp\ccjczDvu.s 			page 17


 304:Src/tim.c     **** 
 305:Src/tim.c     ****   if(tim_baseHandle->Instance==TIM2)
 626              		.loc 1 305 0
 627 0004 0368     		ldr	r3, [r0]
 628 0006 B3F1804F 		cmp	r3, #1073741824
 629 000a 14D1     		bne	.L50
 630              	.LBB3:
 306:Src/tim.c     ****   {
 307:Src/tim.c     ****   /* USER CODE BEGIN TIM2_MspInit 0 */
 308:Src/tim.c     **** 
 309:Src/tim.c     ****   /* USER CODE END TIM2_MspInit 0 */
 310:Src/tim.c     ****     /* TIM2 clock enable */
 311:Src/tim.c     ****     __HAL_RCC_TIM2_CLK_ENABLE();
 631              		.loc 1 311 0
 632 000c 0021     		movs	r1, #0
 633 000e 0191     		str	r1, [sp, #4]
 634 0010 03F50E33 		add	r3, r3, #145408
 635 0014 1A6C     		ldr	r2, [r3, #64]
 636 0016 42F00102 		orr	r2, r2, #1
 637 001a 1A64     		str	r2, [r3, #64]
 638 001c 1B6C     		ldr	r3, [r3, #64]
 639 001e 03F00103 		and	r3, r3, #1
 640 0022 0193     		str	r3, [sp, #4]
 641 0024 019B     		ldr	r3, [sp, #4]
 642              	.LBE3:
 312:Src/tim.c     **** 
 313:Src/tim.c     ****     /* TIM2 interrupt Init */
 314:Src/tim.c     ****     HAL_NVIC_SetPriority(TIM2_IRQn, 0, 0);
 643              		.loc 1 314 0
 644 0026 0A46     		mov	r2, r1
 645 0028 1C20     		movs	r0, #28
 646              	.LVL28:
 647 002a FFF7FEFF 		bl	HAL_NVIC_SetPriority
 648              	.LVL29:
 315:Src/tim.c     ****     HAL_NVIC_EnableIRQ(TIM2_IRQn);
 649              		.loc 1 315 0
 650 002e 1C20     		movs	r0, #28
 651 0030 FFF7FEFF 		bl	HAL_NVIC_EnableIRQ
 652              	.LVL30:
 653 0034 45E0     		b	.L49
 654              	.LVL31:
 655              	.L50:
 316:Src/tim.c     ****   /* USER CODE BEGIN TIM2_MspInit 1 */
 317:Src/tim.c     **** 
 318:Src/tim.c     ****   /* USER CODE END TIM2_MspInit 1 */
 319:Src/tim.c     ****   }
 320:Src/tim.c     ****   else if(tim_baseHandle->Instance==TIM6)
 656              		.loc 1 320 0
 657 0036 244A     		ldr	r2, .L56
 658 0038 9342     		cmp	r3, r2
 659 003a 0CD1     		bne	.L52
 660              	.LBB4:
 321:Src/tim.c     ****   {
 322:Src/tim.c     ****   /* USER CODE BEGIN TIM6_MspInit 0 */
 323:Src/tim.c     **** 
 324:Src/tim.c     ****   /* USER CODE END TIM6_MspInit 0 */
 325:Src/tim.c     ****     /* TIM6 clock enable */
ARM GAS  C:\Users\shun2\AppData\Local\Temp\ccjczDvu.s 			page 18


 326:Src/tim.c     ****     __HAL_RCC_TIM6_CLK_ENABLE();
 661              		.loc 1 326 0
 662 003c 0023     		movs	r3, #0
 663 003e 0293     		str	r3, [sp, #8]
 664 0040 224B     		ldr	r3, .L56+4
 665 0042 1A6C     		ldr	r2, [r3, #64]
 666 0044 42F01002 		orr	r2, r2, #16
 667 0048 1A64     		str	r2, [r3, #64]
 668 004a 1B6C     		ldr	r3, [r3, #64]
 669 004c 03F01003 		and	r3, r3, #16
 670 0050 0293     		str	r3, [sp, #8]
 671 0052 029B     		ldr	r3, [sp, #8]
 672              	.LBE4:
 673 0054 35E0     		b	.L49
 674              	.L52:
 327:Src/tim.c     ****   /* USER CODE BEGIN TIM6_MspInit 1 */
 328:Src/tim.c     **** 
 329:Src/tim.c     ****   /* USER CODE END TIM6_MspInit 1 */
 330:Src/tim.c     ****   }
 331:Src/tim.c     ****   else if(tim_baseHandle->Instance==TIM7)
 675              		.loc 1 331 0
 676 0056 1E4A     		ldr	r2, .L56+8
 677 0058 9342     		cmp	r3, r2
 678 005a 0CD1     		bne	.L53
 679              	.LBB5:
 332:Src/tim.c     ****   {
 333:Src/tim.c     ****   /* USER CODE BEGIN TIM7_MspInit 0 */
 334:Src/tim.c     **** 
 335:Src/tim.c     ****   /* USER CODE END TIM7_MspInit 0 */
 336:Src/tim.c     ****     /* TIM7 clock enable */
 337:Src/tim.c     ****     __HAL_RCC_TIM7_CLK_ENABLE();
 680              		.loc 1 337 0
 681 005c 0023     		movs	r3, #0
 682 005e 0393     		str	r3, [sp, #12]
 683 0060 1A4B     		ldr	r3, .L56+4
 684 0062 1A6C     		ldr	r2, [r3, #64]
 685 0064 42F02002 		orr	r2, r2, #32
 686 0068 1A64     		str	r2, [r3, #64]
 687 006a 1B6C     		ldr	r3, [r3, #64]
 688 006c 03F02003 		and	r3, r3, #32
 689 0070 0393     		str	r3, [sp, #12]
 690 0072 039B     		ldr	r3, [sp, #12]
 691              	.LBE5:
 692 0074 25E0     		b	.L49
 693              	.L53:
 338:Src/tim.c     ****   /* USER CODE BEGIN TIM7_MspInit 1 */
 339:Src/tim.c     **** 
 340:Src/tim.c     ****   /* USER CODE END TIM7_MspInit 1 */
 341:Src/tim.c     ****   }
 342:Src/tim.c     ****   else if(tim_baseHandle->Instance==TIM10)
 694              		.loc 1 342 0
 695 0076 174A     		ldr	r2, .L56+12
 696 0078 9342     		cmp	r3, r2
 697 007a 0CD1     		bne	.L54
 698              	.LBB6:
 343:Src/tim.c     ****   {
 344:Src/tim.c     ****   /* USER CODE BEGIN TIM10_MspInit 0 */
ARM GAS  C:\Users\shun2\AppData\Local\Temp\ccjczDvu.s 			page 19


 345:Src/tim.c     **** 
 346:Src/tim.c     ****   /* USER CODE END TIM10_MspInit 0 */
 347:Src/tim.c     ****     /* TIM10 clock enable */
 348:Src/tim.c     ****     __HAL_RCC_TIM10_CLK_ENABLE();
 699              		.loc 1 348 0
 700 007c 0023     		movs	r3, #0
 701 007e 0493     		str	r3, [sp, #16]
 702 0080 124B     		ldr	r3, .L56+4
 703 0082 5A6C     		ldr	r2, [r3, #68]
 704 0084 42F40032 		orr	r2, r2, #131072
 705 0088 5A64     		str	r2, [r3, #68]
 706 008a 5B6C     		ldr	r3, [r3, #68]
 707 008c 03F40033 		and	r3, r3, #131072
 708 0090 0493     		str	r3, [sp, #16]
 709 0092 049B     		ldr	r3, [sp, #16]
 710              	.LBE6:
 711 0094 15E0     		b	.L49
 712              	.L54:
 349:Src/tim.c     ****   /* USER CODE BEGIN TIM10_MspInit 1 */
 350:Src/tim.c     **** 
 351:Src/tim.c     ****   /* USER CODE END TIM10_MspInit 1 */
 352:Src/tim.c     ****   }
 353:Src/tim.c     ****   else if(tim_baseHandle->Instance==TIM13)
 713              		.loc 1 353 0
 714 0096 104A     		ldr	r2, .L56+16
 715 0098 9342     		cmp	r3, r2
 716 009a 12D1     		bne	.L49
 717              	.LBB7:
 354:Src/tim.c     ****   {
 355:Src/tim.c     ****   /* USER CODE BEGIN TIM13_MspInit 0 */
 356:Src/tim.c     **** 
 357:Src/tim.c     ****   /* USER CODE END TIM13_MspInit 0 */
 358:Src/tim.c     ****     /* TIM13 clock enable */
 359:Src/tim.c     ****     __HAL_RCC_TIM13_CLK_ENABLE();
 718              		.loc 1 359 0
 719 009c 0022     		movs	r2, #0
 720 009e 0592     		str	r2, [sp, #20]
 721 00a0 0A4B     		ldr	r3, .L56+4
 722 00a2 196C     		ldr	r1, [r3, #64]
 723 00a4 41F08001 		orr	r1, r1, #128
 724 00a8 1964     		str	r1, [r3, #64]
 725 00aa 1B6C     		ldr	r3, [r3, #64]
 726 00ac 03F08003 		and	r3, r3, #128
 727 00b0 0593     		str	r3, [sp, #20]
 728 00b2 059B     		ldr	r3, [sp, #20]
 729              	.LBE7:
 360:Src/tim.c     **** 
 361:Src/tim.c     ****     /* TIM13 interrupt Init */
 362:Src/tim.c     ****     HAL_NVIC_SetPriority(TIM8_UP_TIM13_IRQn, 3, 0);
 730              		.loc 1 362 0
 731 00b4 0321     		movs	r1, #3
 732 00b6 2C20     		movs	r0, #44
 733              	.LVL32:
 734 00b8 FFF7FEFF 		bl	HAL_NVIC_SetPriority
 735              	.LVL33:
 363:Src/tim.c     ****     HAL_NVIC_EnableIRQ(TIM8_UP_TIM13_IRQn);
 736              		.loc 1 363 0
ARM GAS  C:\Users\shun2\AppData\Local\Temp\ccjczDvu.s 			page 20


 737 00bc 2C20     		movs	r0, #44
 738 00be FFF7FEFF 		bl	HAL_NVIC_EnableIRQ
 739              	.LVL34:
 740              	.L49:
 364:Src/tim.c     ****   /* USER CODE BEGIN TIM13_MspInit 1 */
 365:Src/tim.c     **** 
 366:Src/tim.c     ****   /* USER CODE END TIM13_MspInit 1 */
 367:Src/tim.c     ****   }
 368:Src/tim.c     **** }
 741              		.loc 1 368 0
 742 00c2 07B0     		add	sp, sp, #28
 743              	.LCFI21:
 744              		.cfi_def_cfa_offset 4
 745              		@ sp needed
 746 00c4 5DF804FB 		ldr	pc, [sp], #4
 747              	.L57:
 748              		.align	2
 749              	.L56:
 750 00c8 00100040 		.word	1073745920
 751 00cc 00380240 		.word	1073887232
 752 00d0 00140040 		.word	1073746944
 753 00d4 00440140 		.word	1073824768
 754 00d8 001C0040 		.word	1073748992
 755              		.cfi_endproc
 756              	.LFE133:
 758              		.section	.text.HAL_TIM_Encoder_MspInit,"ax",%progbits
 759              		.align	2
 760              		.global	HAL_TIM_Encoder_MspInit
 761              		.thumb
 762              		.thumb_func
 764              	HAL_TIM_Encoder_MspInit:
 765              	.LFB134:
 369:Src/tim.c     **** 
 370:Src/tim.c     **** void HAL_TIM_Encoder_MspInit(TIM_HandleTypeDef* tim_encoderHandle)
 371:Src/tim.c     **** {
 766              		.loc 1 371 0
 767              		.cfi_startproc
 768              		@ args = 0, pretend = 0, frame = 32
 769              		@ frame_needed = 0, uses_anonymous_args = 0
 770              	.LVL35:
 771 0000 00B5     		push	{lr}
 772              	.LCFI22:
 773              		.cfi_def_cfa_offset 4
 774              		.cfi_offset 14, -4
 775 0002 89B0     		sub	sp, sp, #36
 776              	.LCFI23:
 777              		.cfi_def_cfa_offset 40
 372:Src/tim.c     **** 
 373:Src/tim.c     ****   GPIO_InitTypeDef GPIO_InitStruct;
 374:Src/tim.c     ****   if(tim_encoderHandle->Instance==TIM3)
 778              		.loc 1 374 0
 779 0004 0368     		ldr	r3, [r0]
 780 0006 1D4A     		ldr	r2, .L62
 781 0008 9342     		cmp	r3, r2
 782 000a 18D1     		bne	.L59
 783              	.LBB8:
 375:Src/tim.c     ****   {
ARM GAS  C:\Users\shun2\AppData\Local\Temp\ccjczDvu.s 			page 21


 376:Src/tim.c     ****   /* USER CODE BEGIN TIM3_MspInit 0 */
 377:Src/tim.c     **** 
 378:Src/tim.c     ****   /* USER CODE END TIM3_MspInit 0 */
 379:Src/tim.c     ****     /* TIM3 clock enable */
 380:Src/tim.c     ****     __HAL_RCC_TIM3_CLK_ENABLE();
 784              		.loc 1 380 0
 785 000c 0023     		movs	r3, #0
 786 000e 0193     		str	r3, [sp, #4]
 787 0010 02F50D32 		add	r2, r2, #144384
 788 0014 116C     		ldr	r1, [r2, #64]
 789 0016 41F00201 		orr	r1, r1, #2
 790 001a 1164     		str	r1, [r2, #64]
 791 001c 126C     		ldr	r2, [r2, #64]
 792 001e 02F00202 		and	r2, r2, #2
 793 0022 0192     		str	r2, [sp, #4]
 794 0024 019A     		ldr	r2, [sp, #4]
 795              	.LBE8:
 381:Src/tim.c     ****   
 382:Src/tim.c     ****     /**TIM3 GPIO Configuration    
 383:Src/tim.c     ****     PC6     ------> TIM3_CH1
 384:Src/tim.c     ****     PC7     ------> TIM3_CH2 
 385:Src/tim.c     ****     */
 386:Src/tim.c     ****     GPIO_InitStruct.Pin = M2_CHA_Pin|M2_CHB_Pin;
 796              		.loc 1 386 0
 797 0026 C022     		movs	r2, #192
 798 0028 0392     		str	r2, [sp, #12]
 387:Src/tim.c     ****     GPIO_InitStruct.Mode = GPIO_MODE_AF_PP;
 799              		.loc 1 387 0
 800 002a 0222     		movs	r2, #2
 801 002c 0492     		str	r2, [sp, #16]
 388:Src/tim.c     ****     GPIO_InitStruct.Pull = GPIO_NOPULL;
 802              		.loc 1 388 0
 803 002e 0593     		str	r3, [sp, #20]
 389:Src/tim.c     ****     GPIO_InitStruct.Speed = GPIO_SPEED_FREQ_LOW;
 804              		.loc 1 389 0
 805 0030 0693     		str	r3, [sp, #24]
 390:Src/tim.c     ****     GPIO_InitStruct.Alternate = GPIO_AF2_TIM3;
 806              		.loc 1 390 0
 807 0032 0792     		str	r2, [sp, #28]
 391:Src/tim.c     ****     HAL_GPIO_Init(GPIOC, &GPIO_InitStruct);
 808              		.loc 1 391 0
 809 0034 03A9     		add	r1, sp, #12
 810 0036 1248     		ldr	r0, .L62+4
 811              	.LVL36:
 812 0038 FFF7FEFF 		bl	HAL_GPIO_Init
 813              	.LVL37:
 814 003c 1AE0     		b	.L58
 815              	.LVL38:
 816              	.L59:
 392:Src/tim.c     **** 
 393:Src/tim.c     ****   /* USER CODE BEGIN TIM3_MspInit 1 */
 394:Src/tim.c     **** 
 395:Src/tim.c     ****   /* USER CODE END TIM3_MspInit 1 */
 396:Src/tim.c     ****   }
 397:Src/tim.c     ****   else if(tim_encoderHandle->Instance==TIM5)
 817              		.loc 1 397 0
 818 003e 114A     		ldr	r2, .L62+8
ARM GAS  C:\Users\shun2\AppData\Local\Temp\ccjczDvu.s 			page 22


 819 0040 9342     		cmp	r3, r2
 820 0042 17D1     		bne	.L58
 821              	.LBB9:
 398:Src/tim.c     ****   {
 399:Src/tim.c     ****   /* USER CODE BEGIN TIM5_MspInit 0 */
 400:Src/tim.c     **** 
 401:Src/tim.c     ****   /* USER CODE END TIM5_MspInit 0 */
 402:Src/tim.c     ****     /* TIM5 clock enable */
 403:Src/tim.c     ****     __HAL_RCC_TIM5_CLK_ENABLE();
 822              		.loc 1 403 0
 823 0044 0023     		movs	r3, #0
 824 0046 0293     		str	r3, [sp, #8]
 825 0048 02F50B32 		add	r2, r2, #142336
 826 004c 116C     		ldr	r1, [r2, #64]
 827 004e 41F00801 		orr	r1, r1, #8
 828 0052 1164     		str	r1, [r2, #64]
 829 0054 126C     		ldr	r2, [r2, #64]
 830 0056 02F00802 		and	r2, r2, #8
 831 005a 0292     		str	r2, [sp, #8]
 832 005c 029A     		ldr	r2, [sp, #8]
 833              	.LBE9:
 404:Src/tim.c     ****   
 405:Src/tim.c     ****     /**TIM5 GPIO Configuration    
 406:Src/tim.c     ****     PA0/WKUP     ------> TIM5_CH1
 407:Src/tim.c     ****     PA1     ------> TIM5_CH2 
 408:Src/tim.c     ****     */
 409:Src/tim.c     ****     GPIO_InitStruct.Pin = M1_CHA_Pin|M1_CHB_Pin;
 834              		.loc 1 409 0
 835 005e 0322     		movs	r2, #3
 836 0060 0392     		str	r2, [sp, #12]
 410:Src/tim.c     ****     GPIO_InitStruct.Mode = GPIO_MODE_AF_PP;
 837              		.loc 1 410 0
 838 0062 0222     		movs	r2, #2
 839 0064 0492     		str	r2, [sp, #16]
 411:Src/tim.c     ****     GPIO_InitStruct.Pull = GPIO_NOPULL;
 840              		.loc 1 411 0
 841 0066 0593     		str	r3, [sp, #20]
 412:Src/tim.c     ****     GPIO_InitStruct.Speed = GPIO_SPEED_FREQ_LOW;
 842              		.loc 1 412 0
 843 0068 0693     		str	r3, [sp, #24]
 413:Src/tim.c     ****     GPIO_InitStruct.Alternate = GPIO_AF2_TIM5;
 844              		.loc 1 413 0
 845 006a 0792     		str	r2, [sp, #28]
 414:Src/tim.c     ****     HAL_GPIO_Init(GPIOA, &GPIO_InitStruct);
 846              		.loc 1 414 0
 847 006c 03A9     		add	r1, sp, #12
 848 006e 0648     		ldr	r0, .L62+12
 849              	.LVL39:
 850 0070 FFF7FEFF 		bl	HAL_GPIO_Init
 851              	.LVL40:
 852              	.L58:
 415:Src/tim.c     **** 
 416:Src/tim.c     ****   /* USER CODE BEGIN TIM5_MspInit 1 */
 417:Src/tim.c     **** 
 418:Src/tim.c     ****   /* USER CODE END TIM5_MspInit 1 */
 419:Src/tim.c     ****   }
 420:Src/tim.c     **** }
ARM GAS  C:\Users\shun2\AppData\Local\Temp\ccjczDvu.s 			page 23


 853              		.loc 1 420 0
 854 0074 09B0     		add	sp, sp, #36
 855              	.LCFI24:
 856              		.cfi_def_cfa_offset 4
 857              		@ sp needed
 858 0076 5DF804FB 		ldr	pc, [sp], #4
 859              	.L63:
 860 007a 00BF     		.align	2
 861              	.L62:
 862 007c 00040040 		.word	1073742848
 863 0080 00080240 		.word	1073874944
 864 0084 000C0040 		.word	1073744896
 865 0088 00000240 		.word	1073872896
 866              		.cfi_endproc
 867              	.LFE134:
 869              		.section	.text.HAL_TIM_MspPostInit,"ax",%progbits
 870              		.align	2
 871              		.global	HAL_TIM_MspPostInit
 872              		.thumb
 873              		.thumb_func
 875              	HAL_TIM_MspPostInit:
 876              	.LFB135:
 421:Src/tim.c     **** void HAL_TIM_MspPostInit(TIM_HandleTypeDef* timHandle)
 422:Src/tim.c     **** {
 877              		.loc 1 422 0
 878              		.cfi_startproc
 879              		@ args = 0, pretend = 0, frame = 24
 880              		@ frame_needed = 0, uses_anonymous_args = 0
 881              	.LVL41:
 423:Src/tim.c     **** 
 424:Src/tim.c     ****   GPIO_InitTypeDef GPIO_InitStruct;
 425:Src/tim.c     ****   if(timHandle->Instance==TIM1)
 882              		.loc 1 425 0
 883 0000 0268     		ldr	r2, [r0]
 884 0002 0B4B     		ldr	r3, .L68
 885 0004 9A42     		cmp	r2, r3
 886 0006 12D1     		bne	.L67
 422:Src/tim.c     **** 
 887              		.loc 1 422 0
 888 0008 00B5     		push	{lr}
 889              	.LCFI25:
 890              		.cfi_def_cfa_offset 4
 891              		.cfi_offset 14, -4
 892 000a 87B0     		sub	sp, sp, #28
 893              	.LCFI26:
 894              		.cfi_def_cfa_offset 32
 426:Src/tim.c     ****   {
 427:Src/tim.c     ****   /* USER CODE BEGIN TIM1_MspPostInit 0 */
 428:Src/tim.c     **** 
 429:Src/tim.c     ****   /* USER CODE END TIM1_MspPostInit 0 */
 430:Src/tim.c     ****   
 431:Src/tim.c     ****     /**TIM1 GPIO Configuration    
 432:Src/tim.c     ****     PE9     ------> TIM1_CH1
 433:Src/tim.c     ****     PE11     ------> TIM1_CH2 
 434:Src/tim.c     ****     */
 435:Src/tim.c     ****     GPIO_InitStruct.Pin = M1_PWM_Pin|M2_PWM_Pin;
 895              		.loc 1 435 0
ARM GAS  C:\Users\shun2\AppData\Local\Temp\ccjczDvu.s 			page 24


 896 000c 4FF42063 		mov	r3, #2560
 897 0010 0193     		str	r3, [sp, #4]
 436:Src/tim.c     ****     GPIO_InitStruct.Mode = GPIO_MODE_AF_PP;
 898              		.loc 1 436 0
 899 0012 0223     		movs	r3, #2
 900 0014 0293     		str	r3, [sp, #8]
 437:Src/tim.c     ****     GPIO_InitStruct.Pull = GPIO_NOPULL;
 901              		.loc 1 437 0
 902 0016 0023     		movs	r3, #0
 903 0018 0393     		str	r3, [sp, #12]
 438:Src/tim.c     ****     GPIO_InitStruct.Speed = GPIO_SPEED_FREQ_LOW;
 904              		.loc 1 438 0
 905 001a 0493     		str	r3, [sp, #16]
 439:Src/tim.c     ****     GPIO_InitStruct.Alternate = GPIO_AF1_TIM1;
 906              		.loc 1 439 0
 907 001c 0123     		movs	r3, #1
 908 001e 0593     		str	r3, [sp, #20]
 440:Src/tim.c     ****     HAL_GPIO_Init(GPIOE, &GPIO_InitStruct);
 909              		.loc 1 440 0
 910 0020 01A9     		add	r1, sp, #4
 911 0022 0448     		ldr	r0, .L68+4
 912              	.LVL42:
 913 0024 FFF7FEFF 		bl	HAL_GPIO_Init
 914              	.LVL43:
 441:Src/tim.c     **** 
 442:Src/tim.c     ****   /* USER CODE BEGIN TIM1_MspPostInit 1 */
 443:Src/tim.c     **** 
 444:Src/tim.c     ****   /* USER CODE END TIM1_MspPostInit 1 */
 445:Src/tim.c     ****   }
 446:Src/tim.c     **** 
 447:Src/tim.c     **** }
 915              		.loc 1 447 0
 916 0028 07B0     		add	sp, sp, #28
 917              	.LCFI27:
 918              		.cfi_def_cfa_offset 4
 919              		@ sp needed
 920 002a 5DF804FB 		ldr	pc, [sp], #4
 921              	.LVL44:
 922              	.L67:
 923              	.LCFI28:
 924              		.cfi_def_cfa_offset 0
 925              		.cfi_restore 14
 926 002e 7047     		bx	lr
 927              	.L69:
 928              		.align	2
 929              	.L68:
 930 0030 00000140 		.word	1073807360
 931 0034 00100240 		.word	1073876992
 932              		.cfi_endproc
 933              	.LFE135:
 935              		.section	.text.MX_TIM1_Init,"ax",%progbits
 936              		.align	2
 937              		.global	MX_TIM1_Init
 938              		.thumb
 939              		.thumb_func
 941              	MX_TIM1_Init:
 942              	.LFB124:
ARM GAS  C:\Users\shun2\AppData\Local\Temp\ccjczDvu.s 			page 25


  60:Src/tim.c     ****   TIM_MasterConfigTypeDef sMasterConfig;
 943              		.loc 1 60 0
 944              		.cfi_startproc
 945              		@ args = 0, pretend = 0, frame = 64
 946              		@ frame_needed = 0, uses_anonymous_args = 0
 947 0000 00B5     		push	{lr}
 948              	.LCFI29:
 949              		.cfi_def_cfa_offset 4
 950              		.cfi_offset 14, -4
 951 0002 91B0     		sub	sp, sp, #68
 952              	.LCFI30:
 953              		.cfi_def_cfa_offset 72
  65:Src/tim.c     ****   htim1.Init.Prescaler = 9;
 954              		.loc 1 65 0
 955 0004 2948     		ldr	r0, .L77
 956 0006 2A4B     		ldr	r3, .L77+4
 957 0008 0360     		str	r3, [r0]
  66:Src/tim.c     ****   htim1.Init.CounterMode = TIM_COUNTERMODE_UP;
 958              		.loc 1 66 0
 959 000a 0923     		movs	r3, #9
 960 000c 4360     		str	r3, [r0, #4]
  67:Src/tim.c     ****   htim1.Init.Period = 1000;
 961              		.loc 1 67 0
 962 000e 0023     		movs	r3, #0
 963 0010 8360     		str	r3, [r0, #8]
  68:Src/tim.c     ****   htim1.Init.ClockDivision = TIM_CLOCKDIVISION_DIV1;
 964              		.loc 1 68 0
 965 0012 4FF47A72 		mov	r2, #1000
 966 0016 C260     		str	r2, [r0, #12]
  69:Src/tim.c     ****   htim1.Init.RepetitionCounter = 0;
 967              		.loc 1 69 0
 968 0018 0361     		str	r3, [r0, #16]
  70:Src/tim.c     ****   if (HAL_TIM_PWM_Init(&htim1) != HAL_OK)
 969              		.loc 1 70 0
 970 001a 4361     		str	r3, [r0, #20]
  71:Src/tim.c     ****   {
 971              		.loc 1 71 0
 972 001c FFF7FEFF 		bl	HAL_TIM_PWM_Init
 973              	.LVL45:
 974 0020 18B1     		cbz	r0, .L71
  73:Src/tim.c     ****   }
 975              		.loc 1 73 0
 976 0022 4921     		movs	r1, #73
 977 0024 2348     		ldr	r0, .L77+8
 978 0026 FFF7FEFF 		bl	_Error_Handler
 979              	.LVL46:
 980              	.L71:
  76:Src/tim.c     ****   sMasterConfig.MasterSlaveMode = TIM_MASTERSLAVEMODE_DISABLE;
 981              		.loc 1 76 0
 982 002a 0023     		movs	r3, #0
 983 002c 0E93     		str	r3, [sp, #56]
  77:Src/tim.c     ****   if (HAL_TIMEx_MasterConfigSynchronization(&htim1, &sMasterConfig) != HAL_OK)
 984              		.loc 1 77 0
 985 002e 0F93     		str	r3, [sp, #60]
  78:Src/tim.c     ****   {
 986              		.loc 1 78 0
 987 0030 0EA9     		add	r1, sp, #56
ARM GAS  C:\Users\shun2\AppData\Local\Temp\ccjczDvu.s 			page 26


 988 0032 1E48     		ldr	r0, .L77
 989 0034 FFF7FEFF 		bl	HAL_TIMEx_MasterConfigSynchronization
 990              	.LVL47:
 991 0038 18B1     		cbz	r0, .L72
  80:Src/tim.c     ****   }
 992              		.loc 1 80 0
 993 003a 5021     		movs	r1, #80
 994 003c 1D48     		ldr	r0, .L77+8
 995 003e FFF7FEFF 		bl	_Error_Handler
 996              	.LVL48:
 997              	.L72:
  83:Src/tim.c     ****   sConfigOC.Pulse = 0;
 998              		.loc 1 83 0
 999 0042 6023     		movs	r3, #96
 1000 0044 0793     		str	r3, [sp, #28]
  84:Src/tim.c     ****   sConfigOC.OCPolarity = TIM_OCPOLARITY_HIGH;
 1001              		.loc 1 84 0
 1002 0046 0022     		movs	r2, #0
 1003 0048 0892     		str	r2, [sp, #32]
  85:Src/tim.c     ****   sConfigOC.OCNPolarity = TIM_OCNPOLARITY_HIGH;
 1004              		.loc 1 85 0
 1005 004a 0992     		str	r2, [sp, #36]
  86:Src/tim.c     ****   sConfigOC.OCFastMode = TIM_OCFAST_DISABLE;
 1006              		.loc 1 86 0
 1007 004c 0A92     		str	r2, [sp, #40]
  87:Src/tim.c     ****   sConfigOC.OCIdleState = TIM_OCIDLESTATE_RESET;
 1008              		.loc 1 87 0
 1009 004e 0B92     		str	r2, [sp, #44]
  88:Src/tim.c     ****   sConfigOC.OCNIdleState = TIM_OCNIDLESTATE_RESET;
 1010              		.loc 1 88 0
 1011 0050 0C92     		str	r2, [sp, #48]
  89:Src/tim.c     ****   if (HAL_TIM_PWM_ConfigChannel(&htim1, &sConfigOC, TIM_CHANNEL_1) != HAL_OK)
 1012              		.loc 1 89 0
 1013 0052 0D92     		str	r2, [sp, #52]
  90:Src/tim.c     ****   {
 1014              		.loc 1 90 0
 1015 0054 07A9     		add	r1, sp, #28
 1016 0056 1548     		ldr	r0, .L77
 1017 0058 FFF7FEFF 		bl	HAL_TIM_PWM_ConfigChannel
 1018              	.LVL49:
 1019 005c 18B1     		cbz	r0, .L73
  92:Src/tim.c     ****   }
 1020              		.loc 1 92 0
 1021 005e 5C21     		movs	r1, #92
 1022 0060 1448     		ldr	r0, .L77+8
 1023 0062 FFF7FEFF 		bl	_Error_Handler
 1024              	.LVL50:
 1025              	.L73:
  95:Src/tim.c     ****   {
 1026              		.loc 1 95 0
 1027 0066 0422     		movs	r2, #4
 1028 0068 07A9     		add	r1, sp, #28
 1029 006a 1048     		ldr	r0, .L77
 1030 006c FFF7FEFF 		bl	HAL_TIM_PWM_ConfigChannel
 1031              	.LVL51:
 1032 0070 18B1     		cbz	r0, .L74
  97:Src/tim.c     ****   }
ARM GAS  C:\Users\shun2\AppData\Local\Temp\ccjczDvu.s 			page 27


 1033              		.loc 1 97 0
 1034 0072 6121     		movs	r1, #97
 1035 0074 0F48     		ldr	r0, .L77+8
 1036 0076 FFF7FEFF 		bl	_Error_Handler
 1037              	.LVL52:
 1038              	.L74:
 100:Src/tim.c     ****   sBreakDeadTimeConfig.OffStateIDLEMode = TIM_OSSI_DISABLE;
 1039              		.loc 1 100 0
 1040 007a 0023     		movs	r3, #0
 1041 007c 0093     		str	r3, [sp]
 101:Src/tim.c     ****   sBreakDeadTimeConfig.LockLevel = TIM_LOCKLEVEL_OFF;
 1042              		.loc 1 101 0
 1043 007e 0193     		str	r3, [sp, #4]
 102:Src/tim.c     ****   sBreakDeadTimeConfig.DeadTime = 0;
 1044              		.loc 1 102 0
 1045 0080 0293     		str	r3, [sp, #8]
 103:Src/tim.c     ****   sBreakDeadTimeConfig.BreakState = TIM_BREAK_DISABLE;
 1046              		.loc 1 103 0
 1047 0082 0393     		str	r3, [sp, #12]
 104:Src/tim.c     ****   sBreakDeadTimeConfig.BreakPolarity = TIM_BREAKPOLARITY_HIGH;
 1048              		.loc 1 104 0
 1049 0084 0493     		str	r3, [sp, #16]
 105:Src/tim.c     ****   sBreakDeadTimeConfig.AutomaticOutput = TIM_AUTOMATICOUTPUT_DISABLE;
 1050              		.loc 1 105 0
 1051 0086 4FF40052 		mov	r2, #8192
 1052 008a 0592     		str	r2, [sp, #20]
 106:Src/tim.c     ****   if (HAL_TIMEx_ConfigBreakDeadTime(&htim1, &sBreakDeadTimeConfig) != HAL_OK)
 1053              		.loc 1 106 0
 1054 008c 0693     		str	r3, [sp, #24]
 107:Src/tim.c     ****   {
 1055              		.loc 1 107 0
 1056 008e 6946     		mov	r1, sp
 1057 0090 0648     		ldr	r0, .L77
 1058 0092 FFF7FEFF 		bl	HAL_TIMEx_ConfigBreakDeadTime
 1059              	.LVL53:
 1060 0096 18B1     		cbz	r0, .L75
 109:Src/tim.c     ****   }
 1061              		.loc 1 109 0
 1062 0098 6D21     		movs	r1, #109
 1063 009a 0648     		ldr	r0, .L77+8
 1064 009c FFF7FEFF 		bl	_Error_Handler
 1065              	.LVL54:
 1066              	.L75:
 112:Src/tim.c     **** 
 1067              		.loc 1 112 0
 1068 00a0 0248     		ldr	r0, .L77
 1069 00a2 FFF7FEFF 		bl	HAL_TIM_MspPostInit
 1070              	.LVL55:
 114:Src/tim.c     **** /* TIM2 init function */
 1071              		.loc 1 114 0
 1072 00a6 11B0     		add	sp, sp, #68
 1073              	.LCFI31:
 1074              		.cfi_def_cfa_offset 4
 1075              		@ sp needed
 1076 00a8 5DF804FB 		ldr	pc, [sp], #4
 1077              	.L78:
 1078              		.align	2
ARM GAS  C:\Users\shun2\AppData\Local\Temp\ccjczDvu.s 			page 28


 1079              	.L77:
 1080 00ac 00000000 		.word	htim1
 1081 00b0 00000140 		.word	1073807360
 1082 00b4 00000000 		.word	.LC0
 1083              		.cfi_endproc
 1084              	.LFE124:
 1086              		.section	.text.HAL_TIM_PWM_MspDeInit,"ax",%progbits
 1087              		.align	2
 1088              		.global	HAL_TIM_PWM_MspDeInit
 1089              		.thumb
 1090              		.thumb_func
 1092              	HAL_TIM_PWM_MspDeInit:
 1093              	.LFB136:
 448:Src/tim.c     **** 
 449:Src/tim.c     **** void HAL_TIM_PWM_MspDeInit(TIM_HandleTypeDef* tim_pwmHandle)
 450:Src/tim.c     **** {
 1094              		.loc 1 450 0
 1095              		.cfi_startproc
 1096              		@ args = 0, pretend = 0, frame = 0
 1097              		@ frame_needed = 0, uses_anonymous_args = 0
 1098              		@ link register save eliminated.
 1099              	.LVL56:
 451:Src/tim.c     **** 
 452:Src/tim.c     ****   if(tim_pwmHandle->Instance==TIM1)
 1100              		.loc 1 452 0
 1101 0000 0268     		ldr	r2, [r0]
 1102 0002 044B     		ldr	r3, .L81
 1103 0004 9A42     		cmp	r2, r3
 1104 0006 04D1     		bne	.L79
 453:Src/tim.c     ****   {
 454:Src/tim.c     ****   /* USER CODE BEGIN TIM1_MspDeInit 0 */
 455:Src/tim.c     **** 
 456:Src/tim.c     ****   /* USER CODE END TIM1_MspDeInit 0 */
 457:Src/tim.c     ****     /* Peripheral clock disable */
 458:Src/tim.c     ****     __HAL_RCC_TIM1_CLK_DISABLE();
 1105              		.loc 1 458 0
 1106 0008 034A     		ldr	r2, .L81+4
 1107 000a 536C     		ldr	r3, [r2, #68]
 1108 000c 23F00103 		bic	r3, r3, #1
 1109 0010 5364     		str	r3, [r2, #68]
 1110              	.L79:
 1111 0012 7047     		bx	lr
 1112              	.L82:
 1113              		.align	2
 1114              	.L81:
 1115 0014 00000140 		.word	1073807360
 1116 0018 00380240 		.word	1073887232
 1117              		.cfi_endproc
 1118              	.LFE136:
 1120              		.section	.text.HAL_TIM_Base_MspDeInit,"ax",%progbits
 1121              		.align	2
 1122              		.global	HAL_TIM_Base_MspDeInit
 1123              		.thumb
 1124              		.thumb_func
 1126              	HAL_TIM_Base_MspDeInit:
 1127              	.LFB137:
 459:Src/tim.c     ****   /* USER CODE BEGIN TIM1_MspDeInit 1 */
ARM GAS  C:\Users\shun2\AppData\Local\Temp\ccjczDvu.s 			page 29


 460:Src/tim.c     **** 
 461:Src/tim.c     ****   /* USER CODE END TIM1_MspDeInit 1 */
 462:Src/tim.c     ****   }
 463:Src/tim.c     **** }
 464:Src/tim.c     **** 
 465:Src/tim.c     **** void HAL_TIM_Base_MspDeInit(TIM_HandleTypeDef* tim_baseHandle)
 466:Src/tim.c     **** {
 1128              		.loc 1 466 0
 1129              		.cfi_startproc
 1130              		@ args = 0, pretend = 0, frame = 0
 1131              		@ frame_needed = 0, uses_anonymous_args = 0
 1132              	.LVL57:
 1133 0000 08B5     		push	{r3, lr}
 1134              	.LCFI32:
 1135              		.cfi_def_cfa_offset 8
 1136              		.cfi_offset 3, -8
 1137              		.cfi_offset 14, -4
 467:Src/tim.c     **** 
 468:Src/tim.c     ****   if(tim_baseHandle->Instance==TIM2)
 1138              		.loc 1 468 0
 1139 0002 0368     		ldr	r3, [r0]
 1140 0004 B3F1804F 		cmp	r3, #1073741824
 1141 0008 08D1     		bne	.L84
 469:Src/tim.c     ****   {
 470:Src/tim.c     ****   /* USER CODE BEGIN TIM2_MspDeInit 0 */
 471:Src/tim.c     **** 
 472:Src/tim.c     ****   /* USER CODE END TIM2_MspDeInit 0 */
 473:Src/tim.c     ****     /* Peripheral clock disable */
 474:Src/tim.c     ****     __HAL_RCC_TIM2_CLK_DISABLE();
 1142              		.loc 1 474 0
 1143 000a 1A4A     		ldr	r2, .L90
 1144 000c 136C     		ldr	r3, [r2, #64]
 1145 000e 23F00103 		bic	r3, r3, #1
 1146 0012 1364     		str	r3, [r2, #64]
 475:Src/tim.c     **** 
 476:Src/tim.c     ****     /* TIM2 interrupt Deinit */
 477:Src/tim.c     ****     HAL_NVIC_DisableIRQ(TIM2_IRQn);
 1147              		.loc 1 477 0
 1148 0014 1C20     		movs	r0, #28
 1149              	.LVL58:
 1150 0016 FFF7FEFF 		bl	HAL_NVIC_DisableIRQ
 1151              	.LVL59:
 1152 001a 08BD     		pop	{r3, pc}
 1153              	.LVL60:
 1154              	.L84:
 478:Src/tim.c     ****   /* USER CODE BEGIN TIM2_MspDeInit 1 */
 479:Src/tim.c     **** 
 480:Src/tim.c     ****   /* USER CODE END TIM2_MspDeInit 1 */
 481:Src/tim.c     ****   }
 482:Src/tim.c     ****   else if(tim_baseHandle->Instance==TIM6)
 1155              		.loc 1 482 0
 1156 001c 164A     		ldr	r2, .L90+4
 1157 001e 9342     		cmp	r3, r2
 1158 0020 06D1     		bne	.L86
 483:Src/tim.c     ****   {
 484:Src/tim.c     ****   /* USER CODE BEGIN TIM6_MspDeInit 0 */
 485:Src/tim.c     **** 
ARM GAS  C:\Users\shun2\AppData\Local\Temp\ccjczDvu.s 			page 30


 486:Src/tim.c     ****   /* USER CODE END TIM6_MspDeInit 0 */
 487:Src/tim.c     ****     /* Peripheral clock disable */
 488:Src/tim.c     ****     __HAL_RCC_TIM6_CLK_DISABLE();
 1159              		.loc 1 488 0
 1160 0022 02F50A32 		add	r2, r2, #141312
 1161 0026 136C     		ldr	r3, [r2, #64]
 1162 0028 23F01003 		bic	r3, r3, #16
 1163 002c 1364     		str	r3, [r2, #64]
 1164 002e 08BD     		pop	{r3, pc}
 1165              	.L86:
 489:Src/tim.c     ****   /* USER CODE BEGIN TIM6_MspDeInit 1 */
 490:Src/tim.c     **** 
 491:Src/tim.c     ****   /* USER CODE END TIM6_MspDeInit 1 */
 492:Src/tim.c     ****   }
 493:Src/tim.c     ****   else if(tim_baseHandle->Instance==TIM7)
 1166              		.loc 1 493 0
 1167 0030 124A     		ldr	r2, .L90+8
 1168 0032 9342     		cmp	r3, r2
 1169 0034 06D1     		bne	.L87
 494:Src/tim.c     ****   {
 495:Src/tim.c     ****   /* USER CODE BEGIN TIM7_MspDeInit 0 */
 496:Src/tim.c     **** 
 497:Src/tim.c     ****   /* USER CODE END TIM7_MspDeInit 0 */
 498:Src/tim.c     ****     /* Peripheral clock disable */
 499:Src/tim.c     ****     __HAL_RCC_TIM7_CLK_DISABLE();
 1170              		.loc 1 499 0
 1171 0036 02F50932 		add	r2, r2, #140288
 1172 003a 136C     		ldr	r3, [r2, #64]
 1173 003c 23F02003 		bic	r3, r3, #32
 1174 0040 1364     		str	r3, [r2, #64]
 1175 0042 08BD     		pop	{r3, pc}
 1176              	.L87:
 500:Src/tim.c     ****   /* USER CODE BEGIN TIM7_MspDeInit 1 */
 501:Src/tim.c     **** 
 502:Src/tim.c     ****   /* USER CODE END TIM7_MspDeInit 1 */
 503:Src/tim.c     ****   }
 504:Src/tim.c     ****   else if(tim_baseHandle->Instance==TIM10)
 1177              		.loc 1 504 0
 1178 0044 0E4A     		ldr	r2, .L90+12
 1179 0046 9342     		cmp	r3, r2
 1180 0048 06D1     		bne	.L88
 505:Src/tim.c     ****   {
 506:Src/tim.c     ****   /* USER CODE BEGIN TIM10_MspDeInit 0 */
 507:Src/tim.c     **** 
 508:Src/tim.c     ****   /* USER CODE END TIM10_MspDeInit 0 */
 509:Src/tim.c     ****     /* Peripheral clock disable */
 510:Src/tim.c     ****     __HAL_RCC_TIM10_CLK_DISABLE();
 1181              		.loc 1 510 0
 1182 004a 02F57442 		add	r2, r2, #62464
 1183 004e 536C     		ldr	r3, [r2, #68]
 1184 0050 23F40033 		bic	r3, r3, #131072
 1185 0054 5364     		str	r3, [r2, #68]
 1186 0056 08BD     		pop	{r3, pc}
 1187              	.L88:
 511:Src/tim.c     ****   /* USER CODE BEGIN TIM10_MspDeInit 1 */
 512:Src/tim.c     **** 
 513:Src/tim.c     ****   /* USER CODE END TIM10_MspDeInit 1 */
ARM GAS  C:\Users\shun2\AppData\Local\Temp\ccjczDvu.s 			page 31


 514:Src/tim.c     ****   }
 515:Src/tim.c     ****   else if(tim_baseHandle->Instance==TIM13)
 1188              		.loc 1 515 0
 1189 0058 0A4A     		ldr	r2, .L90+16
 1190 005a 9342     		cmp	r3, r2
 1191 005c 08D1     		bne	.L83
 516:Src/tim.c     ****   {
 517:Src/tim.c     ****   /* USER CODE BEGIN TIM13_MspDeInit 0 */
 518:Src/tim.c     **** 
 519:Src/tim.c     ****   /* USER CODE END TIM13_MspDeInit 0 */
 520:Src/tim.c     ****     /* Peripheral clock disable */
 521:Src/tim.c     ****     __HAL_RCC_TIM13_CLK_DISABLE();
 1192              		.loc 1 521 0
 1193 005e 02F50732 		add	r2, r2, #138240
 1194 0062 136C     		ldr	r3, [r2, #64]
 1195 0064 23F08003 		bic	r3, r3, #128
 1196 0068 1364     		str	r3, [r2, #64]
 522:Src/tim.c     **** 
 523:Src/tim.c     ****     /* TIM13 interrupt Deinit */
 524:Src/tim.c     ****     HAL_NVIC_DisableIRQ(TIM8_UP_TIM13_IRQn);
 1197              		.loc 1 524 0
 1198 006a 2C20     		movs	r0, #44
 1199              	.LVL61:
 1200 006c FFF7FEFF 		bl	HAL_NVIC_DisableIRQ
 1201              	.LVL62:
 1202              	.L83:
 1203 0070 08BD     		pop	{r3, pc}
 1204              	.L91:
 1205 0072 00BF     		.align	2
 1206              	.L90:
 1207 0074 00380240 		.word	1073887232
 1208 0078 00100040 		.word	1073745920
 1209 007c 00140040 		.word	1073746944
 1210 0080 00440140 		.word	1073824768
 1211 0084 001C0040 		.word	1073748992
 1212              		.cfi_endproc
 1213              	.LFE137:
 1215              		.section	.text.HAL_TIM_Encoder_MspDeInit,"ax",%progbits
 1216              		.align	2
 1217              		.global	HAL_TIM_Encoder_MspDeInit
 1218              		.thumb
 1219              		.thumb_func
 1221              	HAL_TIM_Encoder_MspDeInit:
 1222              	.LFB138:
 525:Src/tim.c     ****   /* USER CODE BEGIN TIM13_MspDeInit 1 */
 526:Src/tim.c     **** 
 527:Src/tim.c     ****   /* USER CODE END TIM13_MspDeInit 1 */
 528:Src/tim.c     ****   }
 529:Src/tim.c     **** }
 530:Src/tim.c     **** 
 531:Src/tim.c     **** void HAL_TIM_Encoder_MspDeInit(TIM_HandleTypeDef* tim_encoderHandle)
 532:Src/tim.c     **** {
 1223              		.loc 1 532 0
 1224              		.cfi_startproc
 1225              		@ args = 0, pretend = 0, frame = 0
 1226              		@ frame_needed = 0, uses_anonymous_args = 0
 1227              	.LVL63:
ARM GAS  C:\Users\shun2\AppData\Local\Temp\ccjczDvu.s 			page 32


 1228 0000 08B5     		push	{r3, lr}
 1229              	.LCFI33:
 1230              		.cfi_def_cfa_offset 8
 1231              		.cfi_offset 3, -8
 1232              		.cfi_offset 14, -4
 533:Src/tim.c     **** 
 534:Src/tim.c     ****   if(tim_encoderHandle->Instance==TIM3)
 1233              		.loc 1 534 0
 1234 0002 0368     		ldr	r3, [r0]
 1235 0004 0D4A     		ldr	r2, .L96
 1236 0006 9342     		cmp	r3, r2
 1237 0008 0AD1     		bne	.L93
 535:Src/tim.c     ****   {
 536:Src/tim.c     ****   /* USER CODE BEGIN TIM3_MspDeInit 0 */
 537:Src/tim.c     **** 
 538:Src/tim.c     ****   /* USER CODE END TIM3_MspDeInit 0 */
 539:Src/tim.c     ****     /* Peripheral clock disable */
 540:Src/tim.c     ****     __HAL_RCC_TIM3_CLK_DISABLE();
 1238              		.loc 1 540 0
 1239 000a 02F50D32 		add	r2, r2, #144384
 1240 000e 136C     		ldr	r3, [r2, #64]
 1241 0010 23F00203 		bic	r3, r3, #2
 1242 0014 1364     		str	r3, [r2, #64]
 541:Src/tim.c     ****   
 542:Src/tim.c     ****     /**TIM3 GPIO Configuration    
 543:Src/tim.c     ****     PC6     ------> TIM3_CH1
 544:Src/tim.c     ****     PC7     ------> TIM3_CH2 
 545:Src/tim.c     ****     */
 546:Src/tim.c     ****     HAL_GPIO_DeInit(GPIOC, M2_CHA_Pin|M2_CHB_Pin);
 1243              		.loc 1 546 0
 1244 0016 C021     		movs	r1, #192
 1245 0018 0948     		ldr	r0, .L96+4
 1246              	.LVL64:
 1247 001a FFF7FEFF 		bl	HAL_GPIO_DeInit
 1248              	.LVL65:
 1249 001e 08BD     		pop	{r3, pc}
 1250              	.LVL66:
 1251              	.L93:
 547:Src/tim.c     **** 
 548:Src/tim.c     ****   /* USER CODE BEGIN TIM3_MspDeInit 1 */
 549:Src/tim.c     **** 
 550:Src/tim.c     ****   /* USER CODE END TIM3_MspDeInit 1 */
 551:Src/tim.c     ****   }
 552:Src/tim.c     ****   else if(tim_encoderHandle->Instance==TIM5)
 1252              		.loc 1 552 0
 1253 0020 084A     		ldr	r2, .L96+8
 1254 0022 9342     		cmp	r3, r2
 1255 0024 09D1     		bne	.L92
 553:Src/tim.c     ****   {
 554:Src/tim.c     ****   /* USER CODE BEGIN TIM5_MspDeInit 0 */
 555:Src/tim.c     **** 
 556:Src/tim.c     ****   /* USER CODE END TIM5_MspDeInit 0 */
 557:Src/tim.c     ****     /* Peripheral clock disable */
 558:Src/tim.c     ****     __HAL_RCC_TIM5_CLK_DISABLE();
 1256              		.loc 1 558 0
 1257 0026 02F50B32 		add	r2, r2, #142336
 1258 002a 136C     		ldr	r3, [r2, #64]
ARM GAS  C:\Users\shun2\AppData\Local\Temp\ccjczDvu.s 			page 33


 1259 002c 23F00803 		bic	r3, r3, #8
 1260 0030 1364     		str	r3, [r2, #64]
 559:Src/tim.c     ****   
 560:Src/tim.c     ****     /**TIM5 GPIO Configuration    
 561:Src/tim.c     ****     PA0/WKUP     ------> TIM5_CH1
 562:Src/tim.c     ****     PA1     ------> TIM5_CH2 
 563:Src/tim.c     ****     */
 564:Src/tim.c     ****     HAL_GPIO_DeInit(GPIOA, M1_CHA_Pin|M1_CHB_Pin);
 1261              		.loc 1 564 0
 1262 0032 0321     		movs	r1, #3
 1263 0034 0448     		ldr	r0, .L96+12
 1264              	.LVL67:
 1265 0036 FFF7FEFF 		bl	HAL_GPIO_DeInit
 1266              	.LVL68:
 1267              	.L92:
 1268 003a 08BD     		pop	{r3, pc}
 1269              	.L97:
 1270              		.align	2
 1271              	.L96:
 1272 003c 00040040 		.word	1073742848
 1273 0040 00080240 		.word	1073874944
 1274 0044 000C0040 		.word	1073744896
 1275 0048 00000240 		.word	1073872896
 1276              		.cfi_endproc
 1277              	.LFE138:
 1279              		.comm	htim13,60,4
 1280              		.comm	htim10,60,4
 1281              		.comm	htim7,60,4
 1282              		.comm	htim6,60,4
 1283              		.comm	htim5,60,4
 1284              		.comm	htim3,60,4
 1285              		.comm	htim2,60,4
 1286              		.comm	htim1,60,4
 1287              		.section	.rodata.str1.4,"aMS",%progbits,1
 1288              		.align	2
 1289              	.LC0:
 1290 0000 5372632F 		.ascii	"Src/tim.c\000"
 1290      74696D2E 
 1290      6300
 1291              		.text
 1292              	.Letext0:
 1293              		.file 2 "c:\\program files (x86)\\gnu tools arm embedded\\5.4 2016q3\\arm-none-eabi\\include\\mach
 1294              		.file 3 "c:\\program files (x86)\\gnu tools arm embedded\\5.4 2016q3\\arm-none-eabi\\include\\sys\
 1295              		.file 4 "Drivers/CMSIS/Device/ST/STM32F4xx/Include/stm32f429xx.h"
 1296              		.file 5 "Drivers/STM32F4xx_HAL_Driver/Inc/stm32f4xx_hal_def.h"
 1297              		.file 6 "Drivers/STM32F4xx_HAL_Driver/Inc/stm32f4xx_hal_gpio.h"
 1298              		.file 7 "Drivers/STM32F4xx_HAL_Driver/Inc/stm32f4xx_hal_dma.h"
 1299              		.file 8 "Drivers/STM32F4xx_HAL_Driver/Inc/stm32f4xx_hal_tim.h"
 1300              		.file 9 "Drivers/STM32F4xx_HAL_Driver/Inc/stm32f4xx_hal_tim_ex.h"
 1301              		.file 10 "Drivers/CMSIS/Include/core_cm4.h"
 1302              		.file 11 "Inc/tim.h"
 1303              		.file 12 "Drivers/STM32F4xx_HAL_Driver/Inc/stm32f4xx_hal_cortex.h"
ARM GAS  C:\Users\shun2\AppData\Local\Temp\ccjczDvu.s 			page 34

